
AVR_NTI.elf:     file format elf32-avr

Sections:
Idx Name          Size      VMA       LMA       File off  Algn
  0 .text         00000a04  00000000  00000000  00000094  2**1
                  CONTENTS, ALLOC, LOAD, READONLY, CODE
  1 .data         00000042  00800060  00000a04  00000a98  2**0
                  CONTENTS, ALLOC, LOAD, DATA
  2 .bss          00000010  008000a2  008000a2  00000ada  2**0
                  ALLOC
  3 .comment      00000030  00000000  00000000  00000ada  2**0
                  CONTENTS, READONLY
  4 .note.gnu.avr.deviceinfo 0000003c  00000000  00000000  00000b0c  2**2
                  CONTENTS, READONLY
  5 .debug_info   000004e6  00000000  00000000  00000b48  2**0
                  CONTENTS, READONLY, DEBUGGING
  6 .debug_abbrev 000004a3  00000000  00000000  0000102e  2**0
                  CONTENTS, READONLY, DEBUGGING
  7 .debug_line   00000116  00000000  00000000  000014d1  2**0
                  CONTENTS, READONLY, DEBUGGING
  8 .debug_str    00000196  00000000  00000000  000015e7  2**0
                  CONTENTS, READONLY, DEBUGGING

Disassembly of section .text:

00000000 <__vectors>:
   0:	0c 94 2a 00 	jmp	0x54	; 0x54 <__ctors_end>
   4:	0c 94 a5 03 	jmp	0x74a	; 0x74a <__vector_1>
   8:	0c 94 ce 03 	jmp	0x79c	; 0x79c <__vector_2>
   c:	0c 94 f8 03 	jmp	0x7f0	; 0x7f0 <__vector_3>
  10:	0c 94 47 00 	jmp	0x8e	; 0x8e <__bad_interrupt>
  14:	0c 94 47 00 	jmp	0x8e	; 0x8e <__bad_interrupt>
  18:	0c 94 d7 04 	jmp	0x9ae	; 0x9ae <__vector_6>
  1c:	0c 94 85 04 	jmp	0x90a	; 0x90a <__vector_7>
  20:	0c 94 ae 04 	jmp	0x95c	; 0x95c <__vector_8>
  24:	0c 94 5c 04 	jmp	0x8b8	; 0x8b8 <__vector_9>
  28:	0c 94 47 00 	jmp	0x8e	; 0x8e <__bad_interrupt>
  2c:	0c 94 47 00 	jmp	0x8e	; 0x8e <__bad_interrupt>
  30:	0c 94 47 00 	jmp	0x8e	; 0x8e <__bad_interrupt>
  34:	0c 94 47 00 	jmp	0x8e	; 0x8e <__bad_interrupt>
  38:	0c 94 47 00 	jmp	0x8e	; 0x8e <__bad_interrupt>
  3c:	0c 94 47 00 	jmp	0x8e	; 0x8e <__bad_interrupt>
  40:	0c 94 dc 01 	jmp	0x3b8	; 0x3b8 <__vector_16>
  44:	0c 94 47 00 	jmp	0x8e	; 0x8e <__bad_interrupt>
  48:	0c 94 47 00 	jmp	0x8e	; 0x8e <__bad_interrupt>
  4c:	0c 94 47 00 	jmp	0x8e	; 0x8e <__bad_interrupt>
  50:	0c 94 47 00 	jmp	0x8e	; 0x8e <__bad_interrupt>

00000054 <__ctors_end>:
  54:	11 24       	eor	r1, r1
  56:	1f be       	out	0x3f, r1	; 63
  58:	cf e5       	ldi	r28, 0x5F	; 95
  5a:	d8 e0       	ldi	r29, 0x08	; 8
  5c:	de bf       	out	0x3e, r29	; 62
  5e:	cd bf       	out	0x3d, r28	; 61

00000060 <__do_copy_data>:
  60:	10 e0       	ldi	r17, 0x00	; 0
  62:	a0 e6       	ldi	r26, 0x60	; 96
  64:	b0 e0       	ldi	r27, 0x00	; 0
  66:	e4 e0       	ldi	r30, 0x04	; 4
  68:	fa e0       	ldi	r31, 0x0A	; 10
  6a:	02 c0       	rjmp	.+4      	; 0x70 <__do_copy_data+0x10>
  6c:	05 90       	lpm	r0, Z+
  6e:	0d 92       	st	X+, r0
  70:	a2 3a       	cpi	r26, 0xA2	; 162
  72:	b1 07       	cpc	r27, r17
  74:	d9 f7       	brne	.-10     	; 0x6c <__do_copy_data+0xc>

00000076 <__do_clear_bss>:
  76:	20 e0       	ldi	r18, 0x00	; 0
  78:	a2 ea       	ldi	r26, 0xA2	; 162
  7a:	b0 e0       	ldi	r27, 0x00	; 0
  7c:	01 c0       	rjmp	.+2      	; 0x80 <.do_clear_bss_start>

0000007e <.do_clear_bss_loop>:
  7e:	1d 92       	st	X+, r1

00000080 <.do_clear_bss_start>:
  80:	a2 3b       	cpi	r26, 0xB2	; 178
  82:	b2 07       	cpc	r27, r18
  84:	e1 f7       	brne	.-8      	; 0x7e <.do_clear_bss_loop>
  86:	0e 94 b3 01 	call	0x366	; 0x366 <main>
  8a:	0c 94 00 05 	jmp	0xa00	; 0xa00 <_exit>

0000008e <__bad_interrupt>:
  8e:	0c 94 00 00 	jmp	0	; 0x0 <__vectors>

00000092 <KEYPAD_Init>:
  92:	cf 93       	push	r28
  94:	c2 e1       	ldi	r28, 0x12	; 18
  96:	61 e0       	ldi	r22, 0x01	; 1
  98:	8c 2f       	mov	r24, r28
  9a:	0e 94 09 03 	call	0x612	; 0x612 <DIO_WritePin>
  9e:	cf 5f       	subi	r28, 0xFF	; 255
  a0:	c6 31       	cpi	r28, 0x16	; 22
  a2:	c9 f7       	brne	.-14     	; 0x96 <KEYPAD_Init+0x4>
  a4:	cf 91       	pop	r28
  a6:	08 95       	ret

000000a8 <KEYBAD_GetKey>:
  a8:	cf 92       	push	r12
  aa:	df 92       	push	r13
  ac:	ef 92       	push	r14
  ae:	ff 92       	push	r15
  b0:	0f 93       	push	r16
  b2:	1f 93       	push	r17
  b4:	cf 93       	push	r28
  b6:	df 93       	push	r29
  b8:	80 e6       	ldi	r24, 0x60	; 96
  ba:	e8 2e       	mov	r14, r24
  bc:	80 e0       	ldi	r24, 0x00	; 0
  be:	f8 2e       	mov	r15, r24
  c0:	12 e1       	ldi	r17, 0x12	; 18
  c2:	04 e5       	ldi	r16, 0x54	; 84
  c4:	60 e0       	ldi	r22, 0x00	; 0
  c6:	81 2f       	mov	r24, r17
  c8:	0e 94 09 03 	call	0x612	; 0x612 <DIO_WritePin>
  cc:	c0 e0       	ldi	r28, 0x00	; 0
  ce:	d0 e0       	ldi	r29, 0x00	; 0
  d0:	dc 2e       	mov	r13, r28
  d2:	8b e1       	ldi	r24, 0x1B	; 27
  d4:	d8 0e       	add	r13, r24
  d6:	8d 2d       	mov	r24, r13
  d8:	0e 94 88 03 	call	0x710	; 0x710 <DIO_ReadPin>
  dc:	81 11       	cpse	r24, r1
  de:	23 c0       	rjmp	.+70     	; 0x126 <KEYBAD_GetKey+0x7e>
  e0:	c1 11       	cpse	r28, r1
  e2:	0e c0       	rjmp	.+28     	; 0x100 <KEYBAD_GetKey+0x58>
  e4:	f7 01       	movw	r30, r14
  e6:	00 81       	ld	r16, Z
  e8:	8f e3       	ldi	r24, 0x3F	; 63
  ea:	9c e9       	ldi	r25, 0x9C	; 156
  ec:	01 97       	sbiw	r24, 0x01	; 1
  ee:	f1 f7       	brne	.-4      	; 0xec <KEYBAD_GetKey+0x44>
  f0:	00 c0       	rjmp	.+0      	; 0xf2 <KEYBAD_GetKey+0x4a>
  f2:	00 00       	nop
  f4:	8d 2d       	mov	r24, r13
  f6:	0e 94 88 03 	call	0x710	; 0x710 <DIO_ReadPin>
  fa:	88 23       	and	r24, r24
  fc:	d9 f3       	breq	.-10     	; 0xf4 <KEYBAD_GetKey+0x4c>
  fe:	13 c0       	rjmp	.+38     	; 0x126 <KEYBAD_GetKey+0x7e>
 100:	91 e0       	ldi	r25, 0x01	; 1
 102:	c9 17       	cp	r28, r25
 104:	81 f0       	breq	.+32     	; 0x126 <KEYBAD_GetKey+0x7e>
 106:	fe 01       	movw	r30, r28
 108:	31 97       	sbiw	r30, 0x01	; 1
 10a:	ee 0d       	add	r30, r14
 10c:	ff 1d       	adc	r31, r15
 10e:	00 81       	ld	r16, Z
 110:	ef e3       	ldi	r30, 0x3F	; 63
 112:	fc e9       	ldi	r31, 0x9C	; 156
 114:	31 97       	sbiw	r30, 0x01	; 1
 116:	f1 f7       	brne	.-4      	; 0x114 <KEYBAD_GetKey+0x6c>
 118:	00 c0       	rjmp	.+0      	; 0x11a <KEYBAD_GetKey+0x72>
 11a:	00 00       	nop
 11c:	8d 2d       	mov	r24, r13
 11e:	0e 94 88 03 	call	0x710	; 0x710 <DIO_ReadPin>
 122:	88 23       	and	r24, r24
 124:	d9 f3       	breq	.-10     	; 0x11c <KEYBAD_GetKey+0x74>
 126:	21 96       	adiw	r28, 0x01	; 1
 128:	c5 30       	cpi	r28, 0x05	; 5
 12a:	d1 05       	cpc	r29, r1
 12c:	89 f6       	brne	.-94     	; 0xd0 <KEYBAD_GetKey+0x28>
 12e:	61 e0       	ldi	r22, 0x01	; 1
 130:	81 2f       	mov	r24, r17
 132:	0e 94 09 03 	call	0x612	; 0x612 <DIO_WritePin>
 136:	1f 5f       	subi	r17, 0xFF	; 255
 138:	f4 e0       	ldi	r31, 0x04	; 4
 13a:	ef 0e       	add	r14, r31
 13c:	f1 1c       	adc	r15, r1
 13e:	16 31       	cpi	r17, 0x16	; 22
 140:	09 f6       	brne	.-126    	; 0xc4 <KEYBAD_GetKey+0x1c>
 142:	80 2f       	mov	r24, r16
 144:	df 91       	pop	r29
 146:	cf 91       	pop	r28
 148:	1f 91       	pop	r17
 14a:	0f 91       	pop	r16
 14c:	ff 90       	pop	r15
 14e:	ef 90       	pop	r14
 150:	df 90       	pop	r13
 152:	cf 90       	pop	r12
 154:	08 95       	ret

00000156 <WriteIns>:
 156:	cf 93       	push	r28
 158:	c8 2f       	mov	r28, r24
 15a:	60 e0       	ldi	r22, 0x00	; 0
 15c:	83 e0       	ldi	r24, 0x03	; 3
 15e:	0e 94 09 03 	call	0x612	; 0x612 <DIO_WritePin>
 162:	6c 2f       	mov	r22, r28
 164:	66 1f       	adc	r22, r22
 166:	66 27       	eor	r22, r22
 168:	66 1f       	adc	r22, r22
 16a:	8c e0       	ldi	r24, 0x0C	; 12
 16c:	0e 94 09 03 	call	0x612	; 0x612 <DIO_WritePin>
 170:	c6 fb       	bst	r28, 6
 172:	66 27       	eor	r22, r22
 174:	60 f9       	bld	r22, 0
 176:	8a e0       	ldi	r24, 0x0A	; 10
 178:	0e 94 09 03 	call	0x612	; 0x612 <DIO_WritePin>
 17c:	c5 fb       	bst	r28, 5
 17e:	66 27       	eor	r22, r22
 180:	60 f9       	bld	r22, 0
 182:	89 e0       	ldi	r24, 0x09	; 9
 184:	0e 94 09 03 	call	0x612	; 0x612 <DIO_WritePin>
 188:	c4 fb       	bst	r28, 4
 18a:	66 27       	eor	r22, r22
 18c:	60 f9       	bld	r22, 0
 18e:	88 e0       	ldi	r24, 0x08	; 8
 190:	0e 94 09 03 	call	0x612	; 0x612 <DIO_WritePin>
 194:	61 e0       	ldi	r22, 0x01	; 1
 196:	82 e0       	ldi	r24, 0x02	; 2
 198:	0e 94 09 03 	call	0x612	; 0x612 <DIO_WritePin>
 19c:	8f e9       	ldi	r24, 0x9F	; 159
 19e:	9f e0       	ldi	r25, 0x0F	; 15
 1a0:	01 97       	sbiw	r24, 0x01	; 1
 1a2:	f1 f7       	brne	.-4      	; 0x1a0 <WriteIns+0x4a>
 1a4:	00 c0       	rjmp	.+0      	; 0x1a6 <WriteIns+0x50>
 1a6:	00 00       	nop
 1a8:	60 e0       	ldi	r22, 0x00	; 0
 1aa:	82 e0       	ldi	r24, 0x02	; 2
 1ac:	0e 94 09 03 	call	0x612	; 0x612 <DIO_WritePin>
 1b0:	8f e9       	ldi	r24, 0x9F	; 159
 1b2:	9f e0       	ldi	r25, 0x0F	; 15
 1b4:	01 97       	sbiw	r24, 0x01	; 1
 1b6:	f1 f7       	brne	.-4      	; 0x1b4 <WriteIns+0x5e>
 1b8:	00 c0       	rjmp	.+0      	; 0x1ba <WriteIns+0x64>
 1ba:	00 00       	nop
 1bc:	c3 fb       	bst	r28, 3
 1be:	66 27       	eor	r22, r22
 1c0:	60 f9       	bld	r22, 0
 1c2:	8c e0       	ldi	r24, 0x0C	; 12
 1c4:	0e 94 09 03 	call	0x612	; 0x612 <DIO_WritePin>
 1c8:	c2 fb       	bst	r28, 2
 1ca:	66 27       	eor	r22, r22
 1cc:	60 f9       	bld	r22, 0
 1ce:	8a e0       	ldi	r24, 0x0A	; 10
 1d0:	0e 94 09 03 	call	0x612	; 0x612 <DIO_WritePin>
 1d4:	c1 fb       	bst	r28, 1
 1d6:	66 27       	eor	r22, r22
 1d8:	60 f9       	bld	r22, 0
 1da:	89 e0       	ldi	r24, 0x09	; 9
 1dc:	0e 94 09 03 	call	0x612	; 0x612 <DIO_WritePin>
 1e0:	6c 2f       	mov	r22, r28
 1e2:	61 70       	andi	r22, 0x01	; 1
 1e4:	88 e0       	ldi	r24, 0x08	; 8
 1e6:	0e 94 09 03 	call	0x612	; 0x612 <DIO_WritePin>
 1ea:	61 e0       	ldi	r22, 0x01	; 1
 1ec:	82 e0       	ldi	r24, 0x02	; 2
 1ee:	0e 94 09 03 	call	0x612	; 0x612 <DIO_WritePin>
 1f2:	8f e9       	ldi	r24, 0x9F	; 159
 1f4:	9f e0       	ldi	r25, 0x0F	; 15
 1f6:	01 97       	sbiw	r24, 0x01	; 1
 1f8:	f1 f7       	brne	.-4      	; 0x1f6 <WriteIns+0xa0>
 1fa:	00 c0       	rjmp	.+0      	; 0x1fc <WriteIns+0xa6>
 1fc:	00 00       	nop
 1fe:	60 e0       	ldi	r22, 0x00	; 0
 200:	82 e0       	ldi	r24, 0x02	; 2
 202:	0e 94 09 03 	call	0x612	; 0x612 <DIO_WritePin>
 206:	8f e9       	ldi	r24, 0x9F	; 159
 208:	9f e0       	ldi	r25, 0x0F	; 15
 20a:	01 97       	sbiw	r24, 0x01	; 1
 20c:	f1 f7       	brne	.-4      	; 0x20a <WriteIns+0xb4>
 20e:	00 c0       	rjmp	.+0      	; 0x210 <WriteIns+0xba>
 210:	00 00       	nop
 212:	cf 91       	pop	r28
 214:	08 95       	ret

00000216 <WriteData>:
 216:	cf 93       	push	r28
 218:	c8 2f       	mov	r28, r24
 21a:	61 e0       	ldi	r22, 0x01	; 1
 21c:	83 e0       	ldi	r24, 0x03	; 3
 21e:	0e 94 09 03 	call	0x612	; 0x612 <DIO_WritePin>
 222:	6c 2f       	mov	r22, r28
 224:	66 1f       	adc	r22, r22
 226:	66 27       	eor	r22, r22
 228:	66 1f       	adc	r22, r22
 22a:	8c e0       	ldi	r24, 0x0C	; 12
 22c:	0e 94 09 03 	call	0x612	; 0x612 <DIO_WritePin>
 230:	c6 fb       	bst	r28, 6
 232:	66 27       	eor	r22, r22
 234:	60 f9       	bld	r22, 0
 236:	8a e0       	ldi	r24, 0x0A	; 10
 238:	0e 94 09 03 	call	0x612	; 0x612 <DIO_WritePin>
 23c:	c5 fb       	bst	r28, 5
 23e:	66 27       	eor	r22, r22
 240:	60 f9       	bld	r22, 0
 242:	89 e0       	ldi	r24, 0x09	; 9
 244:	0e 94 09 03 	call	0x612	; 0x612 <DIO_WritePin>
 248:	c4 fb       	bst	r28, 4
 24a:	66 27       	eor	r22, r22
 24c:	60 f9       	bld	r22, 0
 24e:	88 e0       	ldi	r24, 0x08	; 8
 250:	0e 94 09 03 	call	0x612	; 0x612 <DIO_WritePin>
 254:	61 e0       	ldi	r22, 0x01	; 1
 256:	82 e0       	ldi	r24, 0x02	; 2
 258:	0e 94 09 03 	call	0x612	; 0x612 <DIO_WritePin>
 25c:	8f e9       	ldi	r24, 0x9F	; 159
 25e:	9f e0       	ldi	r25, 0x0F	; 15
 260:	01 97       	sbiw	r24, 0x01	; 1
 262:	f1 f7       	brne	.-4      	; 0x260 <WriteData+0x4a>
 264:	00 c0       	rjmp	.+0      	; 0x266 <WriteData+0x50>
 266:	00 00       	nop
 268:	60 e0       	ldi	r22, 0x00	; 0
 26a:	82 e0       	ldi	r24, 0x02	; 2
 26c:	0e 94 09 03 	call	0x612	; 0x612 <DIO_WritePin>
 270:	8f e9       	ldi	r24, 0x9F	; 159
 272:	9f e0       	ldi	r25, 0x0F	; 15
 274:	01 97       	sbiw	r24, 0x01	; 1
 276:	f1 f7       	brne	.-4      	; 0x274 <WriteData+0x5e>
 278:	00 c0       	rjmp	.+0      	; 0x27a <WriteData+0x64>
 27a:	00 00       	nop
 27c:	c3 fb       	bst	r28, 3
 27e:	66 27       	eor	r22, r22
 280:	60 f9       	bld	r22, 0
 282:	8c e0       	ldi	r24, 0x0C	; 12
 284:	0e 94 09 03 	call	0x612	; 0x612 <DIO_WritePin>
 288:	c2 fb       	bst	r28, 2
 28a:	66 27       	eor	r22, r22
 28c:	60 f9       	bld	r22, 0
 28e:	8a e0       	ldi	r24, 0x0A	; 10
 290:	0e 94 09 03 	call	0x612	; 0x612 <DIO_WritePin>
 294:	c1 fb       	bst	r28, 1
 296:	66 27       	eor	r22, r22
 298:	60 f9       	bld	r22, 0
 29a:	89 e0       	ldi	r24, 0x09	; 9
 29c:	0e 94 09 03 	call	0x612	; 0x612 <DIO_WritePin>
 2a0:	6c 2f       	mov	r22, r28
 2a2:	61 70       	andi	r22, 0x01	; 1
 2a4:	88 e0       	ldi	r24, 0x08	; 8
 2a6:	0e 94 09 03 	call	0x612	; 0x612 <DIO_WritePin>
 2aa:	61 e0       	ldi	r22, 0x01	; 1
 2ac:	82 e0       	ldi	r24, 0x02	; 2
 2ae:	0e 94 09 03 	call	0x612	; 0x612 <DIO_WritePin>
 2b2:	8f e9       	ldi	r24, 0x9F	; 159
 2b4:	9f e0       	ldi	r25, 0x0F	; 15
 2b6:	01 97       	sbiw	r24, 0x01	; 1
 2b8:	f1 f7       	brne	.-4      	; 0x2b6 <WriteData+0xa0>
 2ba:	00 c0       	rjmp	.+0      	; 0x2bc <WriteData+0xa6>
 2bc:	00 00       	nop
 2be:	60 e0       	ldi	r22, 0x00	; 0
 2c0:	82 e0       	ldi	r24, 0x02	; 2
 2c2:	0e 94 09 03 	call	0x612	; 0x612 <DIO_WritePin>
 2c6:	8f e9       	ldi	r24, 0x9F	; 159
 2c8:	9f e0       	ldi	r25, 0x0F	; 15
 2ca:	01 97       	sbiw	r24, 0x01	; 1
 2cc:	f1 f7       	brne	.-4      	; 0x2ca <WriteData+0xb4>
 2ce:	00 c0       	rjmp	.+0      	; 0x2d0 <WriteData+0xba>
 2d0:	00 00       	nop
 2d2:	cf 91       	pop	r28
 2d4:	08 95       	ret

000002d6 <LCD_Clear>:
 2d6:	81 e0       	ldi	r24, 0x01	; 1
 2d8:	0e 94 ab 00 	call	0x156	; 0x156 <WriteIns>
 2dc:	8f e9       	ldi	r24, 0x9F	; 159
 2de:	9f e0       	ldi	r25, 0x0F	; 15
 2e0:	01 97       	sbiw	r24, 0x01	; 1
 2e2:	f1 f7       	brne	.-4      	; 0x2e0 <LCD_Clear+0xa>
 2e4:	00 c0       	rjmp	.+0      	; 0x2e6 <LCD_Clear+0x10>
 2e6:	00 00       	nop
 2e8:	08 95       	ret

000002ea <LCD_Init>:
 2ea:	2f ef       	ldi	r18, 0xFF	; 255
 2ec:	80 e7       	ldi	r24, 0x70	; 112
 2ee:	92 e0       	ldi	r25, 0x02	; 2
 2f0:	21 50       	subi	r18, 0x01	; 1
 2f2:	80 40       	sbci	r24, 0x00	; 0
 2f4:	90 40       	sbci	r25, 0x00	; 0
 2f6:	e1 f7       	brne	.-8      	; 0x2f0 <LCD_Init+0x6>
 2f8:	00 c0       	rjmp	.+0      	; 0x2fa <LCD_Init+0x10>
 2fa:	00 00       	nop
 2fc:	82 e0       	ldi	r24, 0x02	; 2
 2fe:	0e 94 ab 00 	call	0x156	; 0x156 <WriteIns>
 302:	88 e2       	ldi	r24, 0x28	; 40
 304:	0e 94 ab 00 	call	0x156	; 0x156 <WriteIns>
 308:	8c e0       	ldi	r24, 0x0C	; 12
 30a:	0e 94 ab 00 	call	0x156	; 0x156 <WriteIns>
 30e:	0e 94 6b 01 	call	0x2d6	; 0x2d6 <LCD_Clear>
 312:	86 e0       	ldi	r24, 0x06	; 6
 314:	0c 94 ab 00 	jmp	0x156	; 0x156 <WriteIns>

00000318 <LCD_GoTo>:
 318:	98 2f       	mov	r25, r24
 31a:	86 2f       	mov	r24, r22
 31c:	91 11       	cpse	r25, r1
 31e:	02 c0       	rjmp	.+4      	; 0x324 <LCD_GoTo+0xc>
 320:	80 58       	subi	r24, 0x80	; 128
 322:	0b c0       	rjmp	.+22     	; 0x33a <LCD_GoTo+0x22>
 324:	91 30       	cpi	r25, 0x01	; 1
 326:	11 f4       	brne	.+4      	; 0x32c <LCD_GoTo+0x14>
 328:	80 54       	subi	r24, 0x40	; 64
 32a:	07 c0       	rjmp	.+14     	; 0x33a <LCD_GoTo+0x22>
 32c:	92 30       	cpi	r25, 0x02	; 2
 32e:	11 f4       	brne	.+4      	; 0x334 <LCD_GoTo+0x1c>
 330:	8c 56       	subi	r24, 0x6C	; 108
 332:	03 c0       	rjmp	.+6      	; 0x33a <LCD_GoTo+0x22>
 334:	93 30       	cpi	r25, 0x03	; 3
 336:	19 f4       	brne	.+6      	; 0x33e <LCD_GoTo+0x26>
 338:	8c 52       	subi	r24, 0x2C	; 44
 33a:	0c 94 ab 00 	jmp	0x156	; 0x156 <WriteIns>
 33e:	08 95       	ret

00000340 <LCD_WriteString>:
 340:	0f 93       	push	r16
 342:	1f 93       	push	r17
 344:	cf 93       	push	r28
 346:	8c 01       	movw	r16, r24
 348:	c0 e0       	ldi	r28, 0x00	; 0
 34a:	f8 01       	movw	r30, r16
 34c:	ec 0f       	add	r30, r28
 34e:	f1 1d       	adc	r31, r1
 350:	80 81       	ld	r24, Z
 352:	88 23       	and	r24, r24
 354:	21 f0       	breq	.+8      	; 0x35e <LCD_WriteString+0x1e>
 356:	0e 94 0b 01 	call	0x216	; 0x216 <WriteData>
 35a:	cf 5f       	subi	r28, 0xFF	; 255
 35c:	f6 cf       	rjmp	.-20     	; 0x34a <LCD_WriteString+0xa>
 35e:	cf 91       	pop	r28
 360:	1f 91       	pop	r17
 362:	0f 91       	pop	r16
 364:	08 95       	ret

00000366 <main>:
 366:	78 94       	sei
 368:	0e 94 f6 02 	call	0x5ec	; 0x5ec <DIO_Init>
 36c:	0e 94 49 00 	call	0x92	; 0x92 <KEYPAD_Init>
 370:	0e 94 75 01 	call	0x2ea	; 0x2ea <LCD_Init>
 374:	63 e0       	ldi	r22, 0x03	; 3
 376:	81 e0       	ldi	r24, 0x01	; 1
 378:	0e 94 21 04 	call	0x842	; 0x842 <TIMER0_Init>
 37c:	83 e0       	ldi	r24, 0x03	; 3
 37e:	0e 94 41 04 	call	0x882	; 0x882 <TIMER0_OC0Mode>
 382:	60 e0       	ldi	r22, 0x00	; 0
 384:	80 e0       	ldi	r24, 0x00	; 0
 386:	0e 94 8c 01 	call	0x318	; 0x318 <LCD_GoTo>
 38a:	80 e7       	ldi	r24, 0x70	; 112
 38c:	90 e0       	ldi	r25, 0x00	; 0
 38e:	0e 94 a0 01 	call	0x340	; 0x340 <LCD_WriteString>
 392:	0e 94 54 00 	call	0xa8	; 0xa8 <KEYBAD_GetKey>
 396:	84 35       	cpi	r24, 0x54	; 84
 398:	09 f4       	brne	.+2      	; 0x39c <main+0x36>
 39a:	ff cf       	rjmp	.-2      	; 0x39a <main+0x34>
 39c:	8c bf       	out	0x3c, r24	; 60
 39e:	d0 e0       	ldi	r29, 0x00	; 0
 3a0:	c0 e0       	ldi	r28, 0x00	; 0
 3a2:	6c 2f       	mov	r22, r28
 3a4:	8d 2f       	mov	r24, r29
 3a6:	0e 94 21 04 	call	0x842	; 0x842 <TIMER0_Init>
 3aa:	cf 5f       	subi	r28, 0xFF	; 255
 3ac:	c5 30       	cpi	r28, 0x05	; 5
 3ae:	c9 f7       	brne	.-14     	; 0x3a2 <main+0x3c>
 3b0:	df 5f       	subi	r29, 0xFF	; 255
 3b2:	d4 30       	cpi	r29, 0x04	; 4
 3b4:	a9 f7       	brne	.-22     	; 0x3a0 <main+0x3a>
 3b6:	ed cf       	rjmp	.-38     	; 0x392 <main+0x2c>

000003b8 <__vector_16>:
 3b8:	1f 92       	push	r1
 3ba:	0f 92       	push	r0
 3bc:	0f b6       	in	r0, 0x3f	; 63
 3be:	0f 92       	push	r0
 3c0:	11 24       	eor	r1, r1
 3c2:	2f 93       	push	r18
 3c4:	3f 93       	push	r19
 3c6:	4f 93       	push	r20
 3c8:	5f 93       	push	r21
 3ca:	6f 93       	push	r22
 3cc:	7f 93       	push	r23
 3ce:	8f 93       	push	r24
 3d0:	9f 93       	push	r25
 3d2:	af 93       	push	r26
 3d4:	bf 93       	push	r27
 3d6:	ef 93       	push	r30
 3d8:	ff 93       	push	r31
 3da:	e0 91 a2 00 	lds	r30, 0x00A2	; 0x8000a2 <__data_end>
 3de:	f0 91 a3 00 	lds	r31, 0x00A3	; 0x8000a3 <__data_end+0x1>
 3e2:	30 97       	sbiw	r30, 0x00	; 0
 3e4:	09 f0       	breq	.+2      	; 0x3e8 <__vector_16+0x30>
 3e6:	09 95       	icall
 3e8:	ff 91       	pop	r31
 3ea:	ef 91       	pop	r30
 3ec:	bf 91       	pop	r27
 3ee:	af 91       	pop	r26
 3f0:	9f 91       	pop	r25
 3f2:	8f 91       	pop	r24
 3f4:	7f 91       	pop	r23
 3f6:	6f 91       	pop	r22
 3f8:	5f 91       	pop	r21
 3fa:	4f 91       	pop	r20
 3fc:	3f 91       	pop	r19
 3fe:	2f 91       	pop	r18
 400:	0f 90       	pop	r0
 402:	0f be       	out	0x3f, r0	; 63
 404:	0f 90       	pop	r0
 406:	1f 90       	pop	r1
 408:	18 95       	reti

0000040a <DIO_InitPin>:
 40a:	98 2f       	mov	r25, r24
 40c:	97 70       	andi	r25, 0x07	; 7
 40e:	86 95       	lsr	r24
 410:	86 95       	lsr	r24
 412:	86 95       	lsr	r24
 414:	61 30       	cpi	r22, 0x01	; 1
 416:	09 f4       	brne	.+2      	; 0x41a <DIO_InitPin+0x10>
 418:	4d c0       	rjmp	.+154    	; 0x4b4 <DIO_InitPin+0xaa>
 41a:	20 f0       	brcs	.+8      	; 0x424 <DIO_InitPin+0x1a>
 41c:	62 30       	cpi	r22, 0x02	; 2
 41e:	09 f4       	brne	.+2      	; 0x422 <DIO_InitPin+0x18>
 420:	96 c0       	rjmp	.+300    	; 0x54e <DIO_InitPin+0x144>
 422:	08 95       	ret
 424:	81 30       	cpi	r24, 0x01	; 1
 426:	b1 f0       	breq	.+44     	; 0x454 <DIO_InitPin+0x4a>
 428:	28 f0       	brcs	.+10     	; 0x434 <DIO_InitPin+0x2a>
 42a:	82 30       	cpi	r24, 0x02	; 2
 42c:	19 f1       	breq	.+70     	; 0x474 <DIO_InitPin+0x6a>
 42e:	83 30       	cpi	r24, 0x03	; 3
 430:	89 f1       	breq	.+98     	; 0x494 <DIO_InitPin+0x8a>
 432:	08 95       	ret
 434:	4a b3       	in	r20, 0x1a	; 26
 436:	21 e0       	ldi	r18, 0x01	; 1
 438:	30 e0       	ldi	r19, 0x00	; 0
 43a:	b9 01       	movw	r22, r18
 43c:	02 c0       	rjmp	.+4      	; 0x442 <DIO_InitPin+0x38>
 43e:	66 0f       	add	r22, r22
 440:	77 1f       	adc	r23, r23
 442:	9a 95       	dec	r25
 444:	e2 f7       	brpl	.-8      	; 0x43e <DIO_InitPin+0x34>
 446:	cb 01       	movw	r24, r22
 448:	94 2f       	mov	r25, r20
 44a:	98 2b       	or	r25, r24
 44c:	9a bb       	out	0x1a, r25	; 26
 44e:	9b b3       	in	r25, 0x1b	; 27
 450:	80 95       	com	r24
 452:	47 c0       	rjmp	.+142    	; 0x4e2 <DIO_InitPin+0xd8>
 454:	47 b3       	in	r20, 0x17	; 23
 456:	21 e0       	ldi	r18, 0x01	; 1
 458:	30 e0       	ldi	r19, 0x00	; 0
 45a:	b9 01       	movw	r22, r18
 45c:	02 c0       	rjmp	.+4      	; 0x462 <DIO_InitPin+0x58>
 45e:	66 0f       	add	r22, r22
 460:	77 1f       	adc	r23, r23
 462:	9a 95       	dec	r25
 464:	e2 f7       	brpl	.-8      	; 0x45e <DIO_InitPin+0x54>
 466:	cb 01       	movw	r24, r22
 468:	94 2f       	mov	r25, r20
 46a:	98 2b       	or	r25, r24
 46c:	97 bb       	out	0x17, r25	; 23
 46e:	98 b3       	in	r25, 0x18	; 24
 470:	80 95       	com	r24
 472:	49 c0       	rjmp	.+146    	; 0x506 <DIO_InitPin+0xfc>
 474:	44 b3       	in	r20, 0x14	; 20
 476:	21 e0       	ldi	r18, 0x01	; 1
 478:	30 e0       	ldi	r19, 0x00	; 0
 47a:	b9 01       	movw	r22, r18
 47c:	02 c0       	rjmp	.+4      	; 0x482 <DIO_InitPin+0x78>
 47e:	66 0f       	add	r22, r22
 480:	77 1f       	adc	r23, r23
 482:	9a 95       	dec	r25
 484:	e2 f7       	brpl	.-8      	; 0x47e <DIO_InitPin+0x74>
 486:	cb 01       	movw	r24, r22
 488:	94 2f       	mov	r25, r20
 48a:	98 2b       	or	r25, r24
 48c:	94 bb       	out	0x14, r25	; 20
 48e:	95 b3       	in	r25, 0x15	; 21
 490:	80 95       	com	r24
 492:	4a c0       	rjmp	.+148    	; 0x528 <DIO_InitPin+0x11e>
 494:	41 b3       	in	r20, 0x11	; 17
 496:	21 e0       	ldi	r18, 0x01	; 1
 498:	30 e0       	ldi	r19, 0x00	; 0
 49a:	b9 01       	movw	r22, r18
 49c:	02 c0       	rjmp	.+4      	; 0x4a2 <DIO_InitPin+0x98>
 49e:	66 0f       	add	r22, r22
 4a0:	77 1f       	adc	r23, r23
 4a2:	9a 95       	dec	r25
 4a4:	e2 f7       	brpl	.-8      	; 0x49e <DIO_InitPin+0x94>
 4a6:	cb 01       	movw	r24, r22
 4a8:	94 2f       	mov	r25, r20
 4aa:	98 2b       	or	r25, r24
 4ac:	91 bb       	out	0x11, r25	; 17
 4ae:	92 b3       	in	r25, 0x12	; 18
 4b0:	80 95       	com	r24
 4b2:	4b c0       	rjmp	.+150    	; 0x54a <DIO_InitPin+0x140>
 4b4:	81 30       	cpi	r24, 0x01	; 1
 4b6:	c1 f0       	breq	.+48     	; 0x4e8 <DIO_InitPin+0xde>
 4b8:	28 f0       	brcs	.+10     	; 0x4c4 <DIO_InitPin+0xba>
 4ba:	82 30       	cpi	r24, 0x02	; 2
 4bc:	31 f1       	breq	.+76     	; 0x50a <DIO_InitPin+0x100>
 4be:	83 30       	cpi	r24, 0x03	; 3
 4c0:	a9 f1       	breq	.+106    	; 0x52c <DIO_InitPin+0x122>
 4c2:	08 95       	ret
 4c4:	4a b3       	in	r20, 0x1a	; 26
 4c6:	21 e0       	ldi	r18, 0x01	; 1
 4c8:	30 e0       	ldi	r19, 0x00	; 0
 4ca:	b9 01       	movw	r22, r18
 4cc:	02 c0       	rjmp	.+4      	; 0x4d2 <DIO_InitPin+0xc8>
 4ce:	66 0f       	add	r22, r22
 4d0:	77 1f       	adc	r23, r23
 4d2:	9a 95       	dec	r25
 4d4:	e2 f7       	brpl	.-8      	; 0x4ce <DIO_InitPin+0xc4>
 4d6:	cb 01       	movw	r24, r22
 4d8:	80 95       	com	r24
 4da:	94 2f       	mov	r25, r20
 4dc:	98 23       	and	r25, r24
 4de:	9a bb       	out	0x1a, r25	; 26
 4e0:	9b b3       	in	r25, 0x1b	; 27
 4e2:	89 23       	and	r24, r25
 4e4:	8b bb       	out	0x1b, r24	; 27
 4e6:	08 95       	ret
 4e8:	47 b3       	in	r20, 0x17	; 23
 4ea:	21 e0       	ldi	r18, 0x01	; 1
 4ec:	30 e0       	ldi	r19, 0x00	; 0
 4ee:	b9 01       	movw	r22, r18
 4f0:	02 c0       	rjmp	.+4      	; 0x4f6 <DIO_InitPin+0xec>
 4f2:	66 0f       	add	r22, r22
 4f4:	77 1f       	adc	r23, r23
 4f6:	9a 95       	dec	r25
 4f8:	e2 f7       	brpl	.-8      	; 0x4f2 <DIO_InitPin+0xe8>
 4fa:	cb 01       	movw	r24, r22
 4fc:	80 95       	com	r24
 4fe:	94 2f       	mov	r25, r20
 500:	98 23       	and	r25, r24
 502:	97 bb       	out	0x17, r25	; 23
 504:	98 b3       	in	r25, 0x18	; 24
 506:	89 23       	and	r24, r25
 508:	4b c0       	rjmp	.+150    	; 0x5a0 <DIO_InitPin+0x196>
 50a:	44 b3       	in	r20, 0x14	; 20
 50c:	21 e0       	ldi	r18, 0x01	; 1
 50e:	30 e0       	ldi	r19, 0x00	; 0
 510:	b9 01       	movw	r22, r18
 512:	02 c0       	rjmp	.+4      	; 0x518 <DIO_InitPin+0x10e>
 514:	66 0f       	add	r22, r22
 516:	77 1f       	adc	r23, r23
 518:	9a 95       	dec	r25
 51a:	e2 f7       	brpl	.-8      	; 0x514 <DIO_InitPin+0x10a>
 51c:	cb 01       	movw	r24, r22
 51e:	80 95       	com	r24
 520:	94 2f       	mov	r25, r20
 522:	98 23       	and	r25, r24
 524:	94 bb       	out	0x14, r25	; 20
 526:	95 b3       	in	r25, 0x15	; 21
 528:	89 23       	and	r24, r25
 52a:	4c c0       	rjmp	.+152    	; 0x5c4 <DIO_InitPin+0x1ba>
 52c:	41 b3       	in	r20, 0x11	; 17
 52e:	21 e0       	ldi	r18, 0x01	; 1
 530:	30 e0       	ldi	r19, 0x00	; 0
 532:	b9 01       	movw	r22, r18
 534:	02 c0       	rjmp	.+4      	; 0x53a <DIO_InitPin+0x130>
 536:	66 0f       	add	r22, r22
 538:	77 1f       	adc	r23, r23
 53a:	9a 95       	dec	r25
 53c:	e2 f7       	brpl	.-8      	; 0x536 <DIO_InitPin+0x12c>
 53e:	cb 01       	movw	r24, r22
 540:	80 95       	com	r24
 542:	94 2f       	mov	r25, r20
 544:	98 23       	and	r25, r24
 546:	91 bb       	out	0x11, r25	; 17
 548:	92 b3       	in	r25, 0x12	; 18
 54a:	89 23       	and	r24, r25
 54c:	4d c0       	rjmp	.+154    	; 0x5e8 <DIO_InitPin+0x1de>
 54e:	81 30       	cpi	r24, 0x01	; 1
 550:	b9 f0       	breq	.+46     	; 0x580 <DIO_InitPin+0x176>
 552:	28 f0       	brcs	.+10     	; 0x55e <DIO_InitPin+0x154>
 554:	82 30       	cpi	r24, 0x02	; 2
 556:	31 f1       	breq	.+76     	; 0x5a4 <DIO_InitPin+0x19a>
 558:	83 30       	cpi	r24, 0x03	; 3
 55a:	b1 f1       	breq	.+108    	; 0x5c8 <DIO_InitPin+0x1be>
 55c:	08 95       	ret
 55e:	4a b3       	in	r20, 0x1a	; 26
 560:	21 e0       	ldi	r18, 0x01	; 1
 562:	30 e0       	ldi	r19, 0x00	; 0
 564:	b9 01       	movw	r22, r18
 566:	02 c0       	rjmp	.+4      	; 0x56c <DIO_InitPin+0x162>
 568:	66 0f       	add	r22, r22
 56a:	77 1f       	adc	r23, r23
 56c:	9a 95       	dec	r25
 56e:	e2 f7       	brpl	.-8      	; 0x568 <DIO_InitPin+0x15e>
 570:	cb 01       	movw	r24, r22
 572:	96 2f       	mov	r25, r22
 574:	90 95       	com	r25
 576:	94 23       	and	r25, r20
 578:	9a bb       	out	0x1a, r25	; 26
 57a:	9b b3       	in	r25, 0x1b	; 27
 57c:	89 2b       	or	r24, r25
 57e:	b2 cf       	rjmp	.-156    	; 0x4e4 <DIO_InitPin+0xda>
 580:	47 b3       	in	r20, 0x17	; 23
 582:	21 e0       	ldi	r18, 0x01	; 1
 584:	30 e0       	ldi	r19, 0x00	; 0
 586:	b9 01       	movw	r22, r18
 588:	02 c0       	rjmp	.+4      	; 0x58e <DIO_InitPin+0x184>
 58a:	66 0f       	add	r22, r22
 58c:	77 1f       	adc	r23, r23
 58e:	9a 95       	dec	r25
 590:	e2 f7       	brpl	.-8      	; 0x58a <DIO_InitPin+0x180>
 592:	cb 01       	movw	r24, r22
 594:	96 2f       	mov	r25, r22
 596:	90 95       	com	r25
 598:	94 23       	and	r25, r20
 59a:	97 bb       	out	0x17, r25	; 23
 59c:	98 b3       	in	r25, 0x18	; 24
 59e:	89 2b       	or	r24, r25
 5a0:	88 bb       	out	0x18, r24	; 24
 5a2:	08 95       	ret
 5a4:	44 b3       	in	r20, 0x14	; 20
 5a6:	21 e0       	ldi	r18, 0x01	; 1
 5a8:	30 e0       	ldi	r19, 0x00	; 0
 5aa:	b9 01       	movw	r22, r18
 5ac:	02 c0       	rjmp	.+4      	; 0x5b2 <DIO_InitPin+0x1a8>
 5ae:	66 0f       	add	r22, r22
 5b0:	77 1f       	adc	r23, r23
 5b2:	9a 95       	dec	r25
 5b4:	e2 f7       	brpl	.-8      	; 0x5ae <DIO_InitPin+0x1a4>
 5b6:	cb 01       	movw	r24, r22
 5b8:	96 2f       	mov	r25, r22
 5ba:	90 95       	com	r25
 5bc:	94 23       	and	r25, r20
 5be:	94 bb       	out	0x14, r25	; 20
 5c0:	95 b3       	in	r25, 0x15	; 21
 5c2:	89 2b       	or	r24, r25
 5c4:	85 bb       	out	0x15, r24	; 21
 5c6:	08 95       	ret
 5c8:	41 b3       	in	r20, 0x11	; 17
 5ca:	21 e0       	ldi	r18, 0x01	; 1
 5cc:	30 e0       	ldi	r19, 0x00	; 0
 5ce:	b9 01       	movw	r22, r18
 5d0:	02 c0       	rjmp	.+4      	; 0x5d6 <DIO_InitPin+0x1cc>
 5d2:	66 0f       	add	r22, r22
 5d4:	77 1f       	adc	r23, r23
 5d6:	9a 95       	dec	r25
 5d8:	e2 f7       	brpl	.-8      	; 0x5d2 <DIO_InitPin+0x1c8>
 5da:	cb 01       	movw	r24, r22
 5dc:	96 2f       	mov	r25, r22
 5de:	90 95       	com	r25
 5e0:	94 23       	and	r25, r20
 5e2:	91 bb       	out	0x11, r25	; 17
 5e4:	92 b3       	in	r25, 0x12	; 18
 5e6:	89 2b       	or	r24, r25
 5e8:	82 bb       	out	0x12, r24	; 18
 5ea:	08 95       	ret

000005ec <DIO_Init>:
 5ec:	0f 93       	push	r16
 5ee:	1f 93       	push	r17
 5f0:	cf 93       	push	r28
 5f2:	02 e8       	ldi	r16, 0x82	; 130
 5f4:	10 e0       	ldi	r17, 0x00	; 0
 5f6:	c0 e0       	ldi	r28, 0x00	; 0
 5f8:	f8 01       	movw	r30, r16
 5fa:	61 91       	ld	r22, Z+
 5fc:	8f 01       	movw	r16, r30
 5fe:	8c 2f       	mov	r24, r28
 600:	0e 94 05 02 	call	0x40a	; 0x40a <DIO_InitPin>
 604:	cf 5f       	subi	r28, 0xFF	; 255
 606:	c0 32       	cpi	r28, 0x20	; 32
 608:	b9 f7       	brne	.-18     	; 0x5f8 <DIO_Init+0xc>
 60a:	cf 91       	pop	r28
 60c:	1f 91       	pop	r17
 60e:	0f 91       	pop	r16
 610:	08 95       	ret

00000612 <DIO_WritePin>:
 612:	98 2f       	mov	r25, r24
 614:	97 70       	andi	r25, 0x07	; 7
 616:	86 95       	lsr	r24
 618:	86 95       	lsr	r24
 61a:	86 95       	lsr	r24
 61c:	61 30       	cpi	r22, 0x01	; 1
 61e:	c1 f5       	brne	.+112    	; 0x690 <DIO_WritePin+0x7e>
 620:	81 30       	cpi	r24, 0x01	; 1
 622:	91 f0       	breq	.+36     	; 0x648 <DIO_WritePin+0x36>
 624:	28 f0       	brcs	.+10     	; 0x630 <DIO_WritePin+0x1e>
 626:	82 30       	cpi	r24, 0x02	; 2
 628:	d9 f0       	breq	.+54     	; 0x660 <DIO_WritePin+0x4e>
 62a:	83 30       	cpi	r24, 0x03	; 3
 62c:	29 f1       	breq	.+74     	; 0x678 <DIO_WritePin+0x66>
 62e:	08 95       	ret
 630:	4b b3       	in	r20, 0x1b	; 27
 632:	21 e0       	ldi	r18, 0x01	; 1
 634:	30 e0       	ldi	r19, 0x00	; 0
 636:	b9 01       	movw	r22, r18
 638:	02 c0       	rjmp	.+4      	; 0x63e <DIO_WritePin+0x2c>
 63a:	66 0f       	add	r22, r22
 63c:	77 1f       	adc	r23, r23
 63e:	9a 95       	dec	r25
 640:	e2 f7       	brpl	.-8      	; 0x63a <DIO_WritePin+0x28>
 642:	cb 01       	movw	r24, r22
 644:	84 2b       	or	r24, r20
 646:	38 c0       	rjmp	.+112    	; 0x6b8 <DIO_WritePin+0xa6>
 648:	48 b3       	in	r20, 0x18	; 24
 64a:	21 e0       	ldi	r18, 0x01	; 1
 64c:	30 e0       	ldi	r19, 0x00	; 0
 64e:	b9 01       	movw	r22, r18
 650:	02 c0       	rjmp	.+4      	; 0x656 <DIO_WritePin+0x44>
 652:	66 0f       	add	r22, r22
 654:	77 1f       	adc	r23, r23
 656:	9a 95       	dec	r25
 658:	e2 f7       	brpl	.-8      	; 0x652 <DIO_WritePin+0x40>
 65a:	cb 01       	movw	r24, r22
 65c:	84 2b       	or	r24, r20
 65e:	3a c0       	rjmp	.+116    	; 0x6d4 <DIO_WritePin+0xc2>
 660:	45 b3       	in	r20, 0x15	; 21
 662:	21 e0       	ldi	r18, 0x01	; 1
 664:	30 e0       	ldi	r19, 0x00	; 0
 666:	b9 01       	movw	r22, r18
 668:	02 c0       	rjmp	.+4      	; 0x66e <DIO_WritePin+0x5c>
 66a:	66 0f       	add	r22, r22
 66c:	77 1f       	adc	r23, r23
 66e:	9a 95       	dec	r25
 670:	e2 f7       	brpl	.-8      	; 0x66a <DIO_WritePin+0x58>
 672:	cb 01       	movw	r24, r22
 674:	84 2b       	or	r24, r20
 676:	3c c0       	rjmp	.+120    	; 0x6f0 <DIO_WritePin+0xde>
 678:	42 b3       	in	r20, 0x12	; 18
 67a:	21 e0       	ldi	r18, 0x01	; 1
 67c:	30 e0       	ldi	r19, 0x00	; 0
 67e:	b9 01       	movw	r22, r18
 680:	02 c0       	rjmp	.+4      	; 0x686 <DIO_WritePin+0x74>
 682:	66 0f       	add	r22, r22
 684:	77 1f       	adc	r23, r23
 686:	9a 95       	dec	r25
 688:	e2 f7       	brpl	.-8      	; 0x682 <DIO_WritePin+0x70>
 68a:	cb 01       	movw	r24, r22
 68c:	84 2b       	or	r24, r20
 68e:	3e c0       	rjmp	.+124    	; 0x70c <DIO_WritePin+0xfa>
 690:	81 30       	cpi	r24, 0x01	; 1
 692:	a1 f0       	breq	.+40     	; 0x6bc <DIO_WritePin+0xaa>
 694:	28 f0       	brcs	.+10     	; 0x6a0 <DIO_WritePin+0x8e>
 696:	82 30       	cpi	r24, 0x02	; 2
 698:	f9 f0       	breq	.+62     	; 0x6d8 <DIO_WritePin+0xc6>
 69a:	83 30       	cpi	r24, 0x03	; 3
 69c:	59 f1       	breq	.+86     	; 0x6f4 <DIO_WritePin+0xe2>
 69e:	08 95       	ret
 6a0:	4b b3       	in	r20, 0x1b	; 27
 6a2:	21 e0       	ldi	r18, 0x01	; 1
 6a4:	30 e0       	ldi	r19, 0x00	; 0
 6a6:	b9 01       	movw	r22, r18
 6a8:	02 c0       	rjmp	.+4      	; 0x6ae <DIO_WritePin+0x9c>
 6aa:	66 0f       	add	r22, r22
 6ac:	77 1f       	adc	r23, r23
 6ae:	9a 95       	dec	r25
 6b0:	e2 f7       	brpl	.-8      	; 0x6aa <DIO_WritePin+0x98>
 6b2:	cb 01       	movw	r24, r22
 6b4:	80 95       	com	r24
 6b6:	84 23       	and	r24, r20
 6b8:	8b bb       	out	0x1b, r24	; 27
 6ba:	08 95       	ret
 6bc:	48 b3       	in	r20, 0x18	; 24
 6be:	21 e0       	ldi	r18, 0x01	; 1
 6c0:	30 e0       	ldi	r19, 0x00	; 0
 6c2:	b9 01       	movw	r22, r18
 6c4:	02 c0       	rjmp	.+4      	; 0x6ca <DIO_WritePin+0xb8>
 6c6:	66 0f       	add	r22, r22
 6c8:	77 1f       	adc	r23, r23
 6ca:	9a 95       	dec	r25
 6cc:	e2 f7       	brpl	.-8      	; 0x6c6 <DIO_WritePin+0xb4>
 6ce:	cb 01       	movw	r24, r22
 6d0:	80 95       	com	r24
 6d2:	84 23       	and	r24, r20
 6d4:	88 bb       	out	0x18, r24	; 24
 6d6:	08 95       	ret
 6d8:	45 b3       	in	r20, 0x15	; 21
 6da:	21 e0       	ldi	r18, 0x01	; 1
 6dc:	30 e0       	ldi	r19, 0x00	; 0
 6de:	b9 01       	movw	r22, r18
 6e0:	02 c0       	rjmp	.+4      	; 0x6e6 <DIO_WritePin+0xd4>
 6e2:	66 0f       	add	r22, r22
 6e4:	77 1f       	adc	r23, r23
 6e6:	9a 95       	dec	r25
 6e8:	e2 f7       	brpl	.-8      	; 0x6e2 <DIO_WritePin+0xd0>
 6ea:	cb 01       	movw	r24, r22
 6ec:	80 95       	com	r24
 6ee:	84 23       	and	r24, r20
 6f0:	85 bb       	out	0x15, r24	; 21
 6f2:	08 95       	ret
 6f4:	42 b3       	in	r20, 0x12	; 18
 6f6:	21 e0       	ldi	r18, 0x01	; 1
 6f8:	30 e0       	ldi	r19, 0x00	; 0
 6fa:	b9 01       	movw	r22, r18
 6fc:	02 c0       	rjmp	.+4      	; 0x702 <DIO_WritePin+0xf0>
 6fe:	66 0f       	add	r22, r22
 700:	77 1f       	adc	r23, r23
 702:	9a 95       	dec	r25
 704:	e2 f7       	brpl	.-8      	; 0x6fe <DIO_WritePin+0xec>
 706:	cb 01       	movw	r24, r22
 708:	80 95       	com	r24
 70a:	84 23       	and	r24, r20
 70c:	82 bb       	out	0x12, r24	; 18
 70e:	08 95       	ret

00000710 <DIO_ReadPin>:
 710:	28 2f       	mov	r18, r24
 712:	27 70       	andi	r18, 0x07	; 7
 714:	86 95       	lsr	r24
 716:	86 95       	lsr	r24
 718:	86 95       	lsr	r24
 71a:	81 30       	cpi	r24, 0x01	; 1
 71c:	49 f0       	breq	.+18     	; 0x730 <DIO_ReadPin+0x20>
 71e:	30 f0       	brcs	.+12     	; 0x72c <DIO_ReadPin+0x1c>
 720:	82 30       	cpi	r24, 0x02	; 2
 722:	41 f0       	breq	.+16     	; 0x734 <DIO_ReadPin+0x24>
 724:	83 30       	cpi	r24, 0x03	; 3
 726:	79 f4       	brne	.+30     	; 0x746 <DIO_ReadPin+0x36>
 728:	80 b3       	in	r24, 0x10	; 16
 72a:	05 c0       	rjmp	.+10     	; 0x736 <DIO_ReadPin+0x26>
 72c:	89 b3       	in	r24, 0x19	; 25
 72e:	03 c0       	rjmp	.+6      	; 0x736 <DIO_ReadPin+0x26>
 730:	86 b3       	in	r24, 0x16	; 22
 732:	01 c0       	rjmp	.+2      	; 0x736 <DIO_ReadPin+0x26>
 734:	83 b3       	in	r24, 0x13	; 19
 736:	90 e0       	ldi	r25, 0x00	; 0
 738:	02 c0       	rjmp	.+4      	; 0x73e <DIO_ReadPin+0x2e>
 73a:	95 95       	asr	r25
 73c:	87 95       	ror	r24
 73e:	2a 95       	dec	r18
 740:	e2 f7       	brpl	.-8      	; 0x73a <DIO_ReadPin+0x2a>
 742:	81 70       	andi	r24, 0x01	; 1
 744:	08 95       	ret
 746:	80 e0       	ldi	r24, 0x00	; 0
 748:	08 95       	ret

0000074a <__vector_1>:
 74a:	1f 92       	push	r1
 74c:	0f 92       	push	r0
 74e:	0f b6       	in	r0, 0x3f	; 63
 750:	0f 92       	push	r0
 752:	11 24       	eor	r1, r1
 754:	2f 93       	push	r18
 756:	3f 93       	push	r19
 758:	4f 93       	push	r20
 75a:	5f 93       	push	r21
 75c:	6f 93       	push	r22
 75e:	7f 93       	push	r23
 760:	8f 93       	push	r24
 762:	9f 93       	push	r25
 764:	af 93       	push	r26
 766:	bf 93       	push	r27
 768:	ef 93       	push	r30
 76a:	ff 93       	push	r31
 76c:	e0 91 a8 00 	lds	r30, 0x00A8	; 0x8000a8 <INT0_Fptr>
 770:	f0 91 a9 00 	lds	r31, 0x00A9	; 0x8000a9 <INT0_Fptr+0x1>
 774:	30 97       	sbiw	r30, 0x00	; 0
 776:	09 f0       	breq	.+2      	; 0x77a <__vector_1+0x30>
 778:	09 95       	icall
 77a:	ff 91       	pop	r31
 77c:	ef 91       	pop	r30
 77e:	bf 91       	pop	r27
 780:	af 91       	pop	r26
 782:	9f 91       	pop	r25
 784:	8f 91       	pop	r24
 786:	7f 91       	pop	r23
 788:	6f 91       	pop	r22
 78a:	5f 91       	pop	r21
 78c:	4f 91       	pop	r20
 78e:	3f 91       	pop	r19
 790:	2f 91       	pop	r18
 792:	0f 90       	pop	r0
 794:	0f be       	out	0x3f, r0	; 63
 796:	0f 90       	pop	r0
 798:	1f 90       	pop	r1
 79a:	18 95       	reti

0000079c <__vector_2>:
 79c:	78 94       	sei
 79e:	1f 92       	push	r1
 7a0:	0f 92       	push	r0
 7a2:	0f b6       	in	r0, 0x3f	; 63
 7a4:	0f 92       	push	r0
 7a6:	11 24       	eor	r1, r1
 7a8:	2f 93       	push	r18
 7aa:	3f 93       	push	r19
 7ac:	4f 93       	push	r20
 7ae:	5f 93       	push	r21
 7b0:	6f 93       	push	r22
 7b2:	7f 93       	push	r23
 7b4:	8f 93       	push	r24
 7b6:	9f 93       	push	r25
 7b8:	af 93       	push	r26
 7ba:	bf 93       	push	r27
 7bc:	ef 93       	push	r30
 7be:	ff 93       	push	r31
 7c0:	e0 91 a6 00 	lds	r30, 0x00A6	; 0x8000a6 <INT1_Fptr>
 7c4:	f0 91 a7 00 	lds	r31, 0x00A7	; 0x8000a7 <INT1_Fptr+0x1>
 7c8:	30 97       	sbiw	r30, 0x00	; 0
 7ca:	09 f0       	breq	.+2      	; 0x7ce <__vector_2+0x32>
 7cc:	09 95       	icall
 7ce:	ff 91       	pop	r31
 7d0:	ef 91       	pop	r30
 7d2:	bf 91       	pop	r27
 7d4:	af 91       	pop	r26
 7d6:	9f 91       	pop	r25
 7d8:	8f 91       	pop	r24
 7da:	7f 91       	pop	r23
 7dc:	6f 91       	pop	r22
 7de:	5f 91       	pop	r21
 7e0:	4f 91       	pop	r20
 7e2:	3f 91       	pop	r19
 7e4:	2f 91       	pop	r18
 7e6:	0f 90       	pop	r0
 7e8:	0f be       	out	0x3f, r0	; 63
 7ea:	0f 90       	pop	r0
 7ec:	1f 90       	pop	r1
 7ee:	18 95       	reti

000007f0 <__vector_3>:
 7f0:	1f 92       	push	r1
 7f2:	0f 92       	push	r0
 7f4:	0f b6       	in	r0, 0x3f	; 63
 7f6:	0f 92       	push	r0
 7f8:	11 24       	eor	r1, r1
 7fa:	2f 93       	push	r18
 7fc:	3f 93       	push	r19
 7fe:	4f 93       	push	r20
 800:	5f 93       	push	r21
 802:	6f 93       	push	r22
 804:	7f 93       	push	r23
 806:	8f 93       	push	r24
 808:	9f 93       	push	r25
 80a:	af 93       	push	r26
 80c:	bf 93       	push	r27
 80e:	ef 93       	push	r30
 810:	ff 93       	push	r31
 812:	e0 91 a4 00 	lds	r30, 0x00A4	; 0x8000a4 <INT2_Fptr>
 816:	f0 91 a5 00 	lds	r31, 0x00A5	; 0x8000a5 <INT2_Fptr+0x1>
 81a:	30 97       	sbiw	r30, 0x00	; 0
 81c:	09 f0       	breq	.+2      	; 0x820 <__DATA_REGION_LENGTH__+0x20>
 81e:	09 95       	icall
 820:	ff 91       	pop	r31
 822:	ef 91       	pop	r30
 824:	bf 91       	pop	r27
 826:	af 91       	pop	r26
 828:	9f 91       	pop	r25
 82a:	8f 91       	pop	r24
 82c:	7f 91       	pop	r23
 82e:	6f 91       	pop	r22
 830:	5f 91       	pop	r21
 832:	4f 91       	pop	r20
 834:	3f 91       	pop	r19
 836:	2f 91       	pop	r18
 838:	0f 90       	pop	r0
 83a:	0f be       	out	0x3f, r0	; 63
 83c:	0f 90       	pop	r0
 83e:	1f 90       	pop	r1
 840:	18 95       	reti

00000842 <TIMER0_Init>:
 842:	81 30       	cpi	r24, 0x01	; 1
 844:	59 f0       	breq	.+22     	; 0x85c <TIMER0_Init+0x1a>
 846:	38 f0       	brcs	.+14     	; 0x856 <TIMER0_Init+0x14>
 848:	82 30       	cpi	r24, 0x02	; 2
 84a:	71 f0       	breq	.+28     	; 0x868 <__stack+0x9>
 84c:	83 30       	cpi	r24, 0x03	; 3
 84e:	91 f4       	brne	.+36     	; 0x874 <__stack+0x15>
 850:	83 b7       	in	r24, 0x33	; 51
 852:	80 64       	ori	r24, 0x40	; 64
 854:	0b c0       	rjmp	.+22     	; 0x86c <__stack+0xd>
 856:	83 b7       	in	r24, 0x33	; 51
 858:	8f 7b       	andi	r24, 0xBF	; 191
 85a:	02 c0       	rjmp	.+4      	; 0x860 <__stack+0x1>
 85c:	83 b7       	in	r24, 0x33	; 51
 85e:	80 64       	ori	r24, 0x40	; 64
 860:	83 bf       	out	0x33, r24	; 51
 862:	83 b7       	in	r24, 0x33	; 51
 864:	87 7f       	andi	r24, 0xF7	; 247
 866:	05 c0       	rjmp	.+10     	; 0x872 <__stack+0x13>
 868:	83 b7       	in	r24, 0x33	; 51
 86a:	8f 7b       	andi	r24, 0xBF	; 191
 86c:	83 bf       	out	0x33, r24	; 51
 86e:	83 b7       	in	r24, 0x33	; 51
 870:	88 60       	ori	r24, 0x08	; 8
 872:	83 bf       	out	0x33, r24	; 51
 874:	83 b7       	in	r24, 0x33	; 51
 876:	88 7f       	andi	r24, 0xF8	; 248
 878:	83 bf       	out	0x33, r24	; 51
 87a:	83 b7       	in	r24, 0x33	; 51
 87c:	68 2b       	or	r22, r24
 87e:	63 bf       	out	0x33, r22	; 51
 880:	08 95       	ret

00000882 <TIMER0_OC0Mode>:
 882:	81 30       	cpi	r24, 0x01	; 1
 884:	49 f0       	breq	.+18     	; 0x898 <TIMER0_OC0Mode+0x16>
 886:	28 f0       	brcs	.+10     	; 0x892 <TIMER0_OC0Mode+0x10>
 888:	82 30       	cpi	r24, 0x02	; 2
 88a:	61 f0       	breq	.+24     	; 0x8a4 <TIMER0_OC0Mode+0x22>
 88c:	83 30       	cpi	r24, 0x03	; 3
 88e:	69 f0       	breq	.+26     	; 0x8aa <TIMER0_OC0Mode+0x28>
 890:	08 95       	ret
 892:	83 b7       	in	r24, 0x33	; 51
 894:	8f 7e       	andi	r24, 0xEF	; 239
 896:	02 c0       	rjmp	.+4      	; 0x89c <TIMER0_OC0Mode+0x1a>
 898:	83 b7       	in	r24, 0x33	; 51
 89a:	80 61       	ori	r24, 0x10	; 16
 89c:	83 bf       	out	0x33, r24	; 51
 89e:	83 b7       	in	r24, 0x33	; 51
 8a0:	8f 7d       	andi	r24, 0xDF	; 223
 8a2:	08 c0       	rjmp	.+16     	; 0x8b4 <TIMER0_OC0Mode+0x32>
 8a4:	83 b7       	in	r24, 0x33	; 51
 8a6:	8f 7e       	andi	r24, 0xEF	; 239
 8a8:	02 c0       	rjmp	.+4      	; 0x8ae <TIMER0_OC0Mode+0x2c>
 8aa:	83 b7       	in	r24, 0x33	; 51
 8ac:	80 61       	ori	r24, 0x10	; 16
 8ae:	83 bf       	out	0x33, r24	; 51
 8b0:	83 b7       	in	r24, 0x33	; 51
 8b2:	80 62       	ori	r24, 0x20	; 32
 8b4:	83 bf       	out	0x33, r24	; 51
 8b6:	08 95       	ret

000008b8 <__vector_9>:
 8b8:	1f 92       	push	r1
 8ba:	0f 92       	push	r0
 8bc:	0f b6       	in	r0, 0x3f	; 63
 8be:	0f 92       	push	r0
 8c0:	11 24       	eor	r1, r1
 8c2:	2f 93       	push	r18
 8c4:	3f 93       	push	r19
 8c6:	4f 93       	push	r20
 8c8:	5f 93       	push	r21
 8ca:	6f 93       	push	r22
 8cc:	7f 93       	push	r23
 8ce:	8f 93       	push	r24
 8d0:	9f 93       	push	r25
 8d2:	af 93       	push	r26
 8d4:	bf 93       	push	r27
 8d6:	ef 93       	push	r30
 8d8:	ff 93       	push	r31
 8da:	e0 91 b0 00 	lds	r30, 0x00B0	; 0x8000b0 <Timer1_OVF_Fptr>
 8de:	f0 91 b1 00 	lds	r31, 0x00B1	; 0x8000b1 <Timer1_OVF_Fptr+0x1>
 8e2:	30 97       	sbiw	r30, 0x00	; 0
 8e4:	09 f0       	breq	.+2      	; 0x8e8 <__vector_9+0x30>
 8e6:	09 95       	icall
 8e8:	ff 91       	pop	r31
 8ea:	ef 91       	pop	r30
 8ec:	bf 91       	pop	r27
 8ee:	af 91       	pop	r26
 8f0:	9f 91       	pop	r25
 8f2:	8f 91       	pop	r24
 8f4:	7f 91       	pop	r23
 8f6:	6f 91       	pop	r22
 8f8:	5f 91       	pop	r21
 8fa:	4f 91       	pop	r20
 8fc:	3f 91       	pop	r19
 8fe:	2f 91       	pop	r18
 900:	0f 90       	pop	r0
 902:	0f be       	out	0x3f, r0	; 63
 904:	0f 90       	pop	r0
 906:	1f 90       	pop	r1
 908:	18 95       	reti

0000090a <__vector_7>:
 90a:	1f 92       	push	r1
 90c:	0f 92       	push	r0
 90e:	0f b6       	in	r0, 0x3f	; 63
 910:	0f 92       	push	r0
 912:	11 24       	eor	r1, r1
 914:	2f 93       	push	r18
 916:	3f 93       	push	r19
 918:	4f 93       	push	r20
 91a:	5f 93       	push	r21
 91c:	6f 93       	push	r22
 91e:	7f 93       	push	r23
 920:	8f 93       	push	r24
 922:	9f 93       	push	r25
 924:	af 93       	push	r26
 926:	bf 93       	push	r27
 928:	ef 93       	push	r30
 92a:	ff 93       	push	r31
 92c:	e0 91 ae 00 	lds	r30, 0x00AE	; 0x8000ae <Timer1_OCA_Fptr>
 930:	f0 91 af 00 	lds	r31, 0x00AF	; 0x8000af <Timer1_OCA_Fptr+0x1>
 934:	30 97       	sbiw	r30, 0x00	; 0
 936:	09 f0       	breq	.+2      	; 0x93a <__vector_7+0x30>
 938:	09 95       	icall
 93a:	ff 91       	pop	r31
 93c:	ef 91       	pop	r30
 93e:	bf 91       	pop	r27
 940:	af 91       	pop	r26
 942:	9f 91       	pop	r25
 944:	8f 91       	pop	r24
 946:	7f 91       	pop	r23
 948:	6f 91       	pop	r22
 94a:	5f 91       	pop	r21
 94c:	4f 91       	pop	r20
 94e:	3f 91       	pop	r19
 950:	2f 91       	pop	r18
 952:	0f 90       	pop	r0
 954:	0f be       	out	0x3f, r0	; 63
 956:	0f 90       	pop	r0
 958:	1f 90       	pop	r1
 95a:	18 95       	reti

0000095c <__vector_8>:
 95c:	1f 92       	push	r1
 95e:	0f 92       	push	r0
 960:	0f b6       	in	r0, 0x3f	; 63
 962:	0f 92       	push	r0
 964:	11 24       	eor	r1, r1
 966:	2f 93       	push	r18
 968:	3f 93       	push	r19
 96a:	4f 93       	push	r20
 96c:	5f 93       	push	r21
 96e:	6f 93       	push	r22
 970:	7f 93       	push	r23
 972:	8f 93       	push	r24
 974:	9f 93       	push	r25
 976:	af 93       	push	r26
 978:	bf 93       	push	r27
 97a:	ef 93       	push	r30
 97c:	ff 93       	push	r31
 97e:	e0 91 ac 00 	lds	r30, 0x00AC	; 0x8000ac <Timer1_OCB_Fptr>
 982:	f0 91 ad 00 	lds	r31, 0x00AD	; 0x8000ad <Timer1_OCB_Fptr+0x1>
 986:	30 97       	sbiw	r30, 0x00	; 0
 988:	09 f0       	breq	.+2      	; 0x98c <__vector_8+0x30>
 98a:	09 95       	icall
 98c:	ff 91       	pop	r31
 98e:	ef 91       	pop	r30
 990:	bf 91       	pop	r27
 992:	af 91       	pop	r26
 994:	9f 91       	pop	r25
 996:	8f 91       	pop	r24
 998:	7f 91       	pop	r23
 99a:	6f 91       	pop	r22
 99c:	5f 91       	pop	r21
 99e:	4f 91       	pop	r20
 9a0:	3f 91       	pop	r19
 9a2:	2f 91       	pop	r18
 9a4:	0f 90       	pop	r0
 9a6:	0f be       	out	0x3f, r0	; 63
 9a8:	0f 90       	pop	r0
 9aa:	1f 90       	pop	r1
 9ac:	18 95       	reti

000009ae <__vector_6>:
 9ae:	1f 92       	push	r1
 9b0:	0f 92       	push	r0
 9b2:	0f b6       	in	r0, 0x3f	; 63
 9b4:	0f 92       	push	r0
 9b6:	11 24       	eor	r1, r1
 9b8:	2f 93       	push	r18
 9ba:	3f 93       	push	r19
 9bc:	4f 93       	push	r20
 9be:	5f 93       	push	r21
 9c0:	6f 93       	push	r22
 9c2:	7f 93       	push	r23
 9c4:	8f 93       	push	r24
 9c6:	9f 93       	push	r25
 9c8:	af 93       	push	r26
 9ca:	bf 93       	push	r27
 9cc:	ef 93       	push	r30
 9ce:	ff 93       	push	r31
 9d0:	e0 91 aa 00 	lds	r30, 0x00AA	; 0x8000aa <Timer1_ICU_Fptr>
 9d4:	f0 91 ab 00 	lds	r31, 0x00AB	; 0x8000ab <Timer1_ICU_Fptr+0x1>
 9d8:	30 97       	sbiw	r30, 0x00	; 0
 9da:	09 f0       	breq	.+2      	; 0x9de <__vector_6+0x30>
 9dc:	09 95       	icall
 9de:	ff 91       	pop	r31
 9e0:	ef 91       	pop	r30
 9e2:	bf 91       	pop	r27
 9e4:	af 91       	pop	r26
 9e6:	9f 91       	pop	r25
 9e8:	8f 91       	pop	r24
 9ea:	7f 91       	pop	r23
 9ec:	6f 91       	pop	r22
 9ee:	5f 91       	pop	r21
 9f0:	4f 91       	pop	r20
 9f2:	3f 91       	pop	r19
 9f4:	2f 91       	pop	r18
 9f6:	0f 90       	pop	r0
 9f8:	0f be       	out	0x3f, r0	; 63
 9fa:	0f 90       	pop	r0
 9fc:	1f 90       	pop	r1
 9fe:	18 95       	reti

00000a00 <_exit>:
 a00:	f8 94       	cli

00000a02 <__stop_program>:
 a02:	ff cf       	rjmp	.-2      	; 0xa02 <__stop_program>
