
AVR_NTI.elf:     file format elf32-avr

Sections:
Idx Name          Size      VMA       LMA       File off  Algn
  0 .text         00000a48  00000000  00000000  00000094  2**1
                  CONTENTS, ALLOC, LOAD, READONLY, CODE
  1 .data         0000003a  00800060  00000a48  00000adc  2**0
                  CONTENTS, ALLOC, LOAD, DATA
  2 .bss          0000000d  0080009a  0080009a  00000b16  2**0
                  ALLOC
  3 .comment      00000030  00000000  00000000  00000b16  2**0
                  CONTENTS, READONLY
  4 .note.gnu.avr.deviceinfo 0000003c  00000000  00000000  00000b48  2**2
                  CONTENTS, READONLY
  5 .debug_info   000004e6  00000000  00000000  00000b84  2**0
                  CONTENTS, READONLY, DEBUGGING
  6 .debug_abbrev 000004a3  00000000  00000000  0000106a  2**0
                  CONTENTS, READONLY, DEBUGGING
  7 .debug_line   00000116  00000000  00000000  0000150d  2**0
                  CONTENTS, READONLY, DEBUGGING
  8 .debug_str    00000196  00000000  00000000  00001623  2**0
                  CONTENTS, READONLY, DEBUGGING

Disassembly of section .text:

00000000 <__vectors>:
   0:	0c 94 32 00 	jmp	0x64	; 0x64 <__ctors_end>
   4:	0c 94 7d 04 	jmp	0x8fa	; 0x8fa <__vector_1>
   8:	0c 94 a6 04 	jmp	0x94c	; 0x94c <__vector_2>
   c:	0c 94 d0 04 	jmp	0x9a0	; 0x9a0 <__vector_3>
  10:	0c 94 4f 00 	jmp	0x9e	; 0x9e <__bad_interrupt>
  14:	0c 94 4f 00 	jmp	0x9e	; 0x9e <__bad_interrupt>
  18:	0c 94 4f 00 	jmp	0x9e	; 0x9e <__bad_interrupt>
  1c:	0c 94 4f 00 	jmp	0x9e	; 0x9e <__bad_interrupt>
  20:	0c 94 4f 00 	jmp	0x9e	; 0x9e <__bad_interrupt>
  24:	0c 94 4f 00 	jmp	0x9e	; 0x9e <__bad_interrupt>
  28:	0c 94 4f 00 	jmp	0x9e	; 0x9e <__bad_interrupt>
  2c:	0c 94 4f 00 	jmp	0x9e	; 0x9e <__bad_interrupt>
  30:	0c 94 4f 00 	jmp	0x9e	; 0x9e <__bad_interrupt>
  34:	0c 94 4f 00 	jmp	0x9e	; 0x9e <__bad_interrupt>
  38:	0c 94 4f 00 	jmp	0x9e	; 0x9e <__bad_interrupt>
  3c:	0c 94 4f 00 	jmp	0x9e	; 0x9e <__bad_interrupt>
  40:	0c 94 4a 02 	jmp	0x494	; 0x494 <__vector_16>
  44:	0c 94 4f 00 	jmp	0x9e	; 0x9e <__bad_interrupt>
  48:	0c 94 4f 00 	jmp	0x9e	; 0x9e <__bad_interrupt>
  4c:	0c 94 4f 00 	jmp	0x9e	; 0x9e <__bad_interrupt>
  50:	0c 94 4f 00 	jmp	0x9e	; 0x9e <__bad_interrupt>
  54:	20 02       	muls	r18, r16
  56:	22 02       	muls	r18, r18
  58:	27 02       	muls	r18, r23
  5a:	29 02       	muls	r18, r25
  5c:	31 02       	muls	r19, r17
  5e:	33 02       	muls	r19, r19
  60:	38 02       	muls	r19, r24
  62:	3a 02       	muls	r19, r26

00000064 <__ctors_end>:
  64:	11 24       	eor	r1, r1
  66:	1f be       	out	0x3f, r1	; 63
  68:	cf e5       	ldi	r28, 0x5F	; 95
  6a:	d8 e0       	ldi	r29, 0x08	; 8
  6c:	de bf       	out	0x3e, r29	; 62
  6e:	cd bf       	out	0x3d, r28	; 61

00000070 <__do_copy_data>:
  70:	10 e0       	ldi	r17, 0x00	; 0
  72:	a0 e6       	ldi	r26, 0x60	; 96
  74:	b0 e0       	ldi	r27, 0x00	; 0
  76:	e8 e4       	ldi	r30, 0x48	; 72
  78:	fa e0       	ldi	r31, 0x0A	; 10
  7a:	02 c0       	rjmp	.+4      	; 0x80 <__do_copy_data+0x10>
  7c:	05 90       	lpm	r0, Z+
  7e:	0d 92       	st	X+, r0
  80:	aa 39       	cpi	r26, 0x9A	; 154
  82:	b1 07       	cpc	r27, r17
  84:	d9 f7       	brne	.-10     	; 0x7c <__do_copy_data+0xc>

00000086 <__do_clear_bss>:
  86:	20 e0       	ldi	r18, 0x00	; 0
  88:	aa e9       	ldi	r26, 0x9A	; 154
  8a:	b0 e0       	ldi	r27, 0x00	; 0
  8c:	01 c0       	rjmp	.+2      	; 0x90 <.do_clear_bss_start>

0000008e <.do_clear_bss_loop>:
  8e:	1d 92       	st	X+, r1

00000090 <.do_clear_bss_start>:
  90:	a7 3a       	cpi	r26, 0xA7	; 167
  92:	b2 07       	cpc	r27, r18
  94:	e1 f7       	brne	.-8      	; 0x8e <.do_clear_bss_loop>
  96:	0e 94 b6 01 	call	0x36c	; 0x36c <main>
  9a:	0c 94 22 05 	jmp	0xa44	; 0xa44 <_exit>

0000009e <__bad_interrupt>:
  9e:	0c 94 00 00 	jmp	0	; 0x0 <__vectors>

000000a2 <segment_display_BCD>:
  a2:	cf 93       	push	r28
  a4:	df 93       	push	r29
  a6:	ec 01       	movw	r28, r24
  a8:	61 e0       	ldi	r22, 0x01	; 1
  aa:	83 e0       	ldi	r24, 0x03	; 3
  ac:	0e 94 77 03 	call	0x6ee	; 0x6ee <DIO_WritePin>
  b0:	61 e0       	ldi	r22, 0x01	; 1
  b2:	82 e0       	ldi	r24, 0x02	; 2
  b4:	0e 94 77 03 	call	0x6ee	; 0x6ee <DIO_WritePin>
  b8:	61 e0       	ldi	r22, 0x01	; 1
  ba:	8d e0       	ldi	r24, 0x0D	; 13
  bc:	0e 94 77 03 	call	0x6ee	; 0x6ee <DIO_WritePin>
  c0:	61 e0       	ldi	r22, 0x01	; 1
  c2:	8e e0       	ldi	r24, 0x0E	; 14
  c4:	0e 94 77 03 	call	0x6ee	; 0x6ee <DIO_WritePin>
  c8:	60 e0       	ldi	r22, 0x00	; 0
  ca:	83 e0       	ldi	r24, 0x03	; 3
  cc:	0e 94 77 03 	call	0x6ee	; 0x6ee <DIO_WritePin>
  d0:	ce 01       	movw	r24, r28
  d2:	6a e0       	ldi	r22, 0x0A	; 10
  d4:	70 e0       	ldi	r23, 0x00	; 0
  d6:	0e 94 f9 04 	call	0x9f2	; 0x9f2 <__udivmodhi4>
  da:	eb 01       	movw	r28, r22
  dc:	fc 01       	movw	r30, r24
  de:	e0 5a       	subi	r30, 0xA0	; 160
  e0:	ff 4f       	sbci	r31, 0xFF	; 255
  e2:	60 81       	ld	r22, Z
  e4:	60 66       	ori	r22, 0x60	; 96
  e6:	81 e0       	ldi	r24, 0x01	; 1
  e8:	0e 94 f6 03 	call	0x7ec	; 0x7ec <DIO_WritePort>
  ec:	61 e0       	ldi	r22, 0x01	; 1
  ee:	82 e0       	ldi	r24, 0x02	; 2
  f0:	0e 94 77 03 	call	0x6ee	; 0x6ee <DIO_WritePin>
  f4:	8f ec       	ldi	r24, 0xCF	; 207
  f6:	97 e0       	ldi	r25, 0x07	; 7
  f8:	01 97       	sbiw	r24, 0x01	; 1
  fa:	f1 f7       	brne	.-4      	; 0xf8 <segment_display_BCD+0x56>
  fc:	00 c0       	rjmp	.+0      	; 0xfe <segment_display_BCD+0x5c>
  fe:	00 00       	nop
 100:	60 e0       	ldi	r22, 0x00	; 0
 102:	82 e0       	ldi	r24, 0x02	; 2
 104:	0e 94 77 03 	call	0x6ee	; 0x6ee <DIO_WritePin>
 108:	c0 5a       	subi	r28, 0xA0	; 160
 10a:	df 4f       	sbci	r29, 0xFF	; 255
 10c:	68 81       	ld	r22, Y
 10e:	60 66       	ori	r22, 0x60	; 96
 110:	81 e0       	ldi	r24, 0x01	; 1
 112:	0e 94 f6 03 	call	0x7ec	; 0x7ec <DIO_WritePort>
 116:	61 e0       	ldi	r22, 0x01	; 1
 118:	83 e0       	ldi	r24, 0x03	; 3
 11a:	0e 94 77 03 	call	0x6ee	; 0x6ee <DIO_WritePin>
 11e:	8f ec       	ldi	r24, 0xCF	; 207
 120:	97 e0       	ldi	r25, 0x07	; 7
 122:	01 97       	sbiw	r24, 0x01	; 1
 124:	f1 f7       	brne	.-4      	; 0x122 <segment_display_BCD+0x80>
 126:	00 c0       	rjmp	.+0      	; 0x128 <segment_display_BCD+0x86>
 128:	00 00       	nop
 12a:	df 91       	pop	r29
 12c:	cf 91       	pop	r28
 12e:	08 95       	ret

00000130 <WriteIns>:
 130:	cf 93       	push	r28
 132:	c8 2f       	mov	r28, r24
 134:	60 e0       	ldi	r22, 0x00	; 0
 136:	83 e0       	ldi	r24, 0x03	; 3
 138:	0e 94 77 03 	call	0x6ee	; 0x6ee <DIO_WritePin>
 13c:	6c 2f       	mov	r22, r28
 13e:	66 1f       	adc	r22, r22
 140:	66 27       	eor	r22, r22
 142:	66 1f       	adc	r22, r22
 144:	8c e0       	ldi	r24, 0x0C	; 12
 146:	0e 94 77 03 	call	0x6ee	; 0x6ee <DIO_WritePin>
 14a:	c6 fb       	bst	r28, 6
 14c:	66 27       	eor	r22, r22
 14e:	60 f9       	bld	r22, 0
 150:	8a e0       	ldi	r24, 0x0A	; 10
 152:	0e 94 77 03 	call	0x6ee	; 0x6ee <DIO_WritePin>
 156:	c5 fb       	bst	r28, 5
 158:	66 27       	eor	r22, r22
 15a:	60 f9       	bld	r22, 0
 15c:	89 e0       	ldi	r24, 0x09	; 9
 15e:	0e 94 77 03 	call	0x6ee	; 0x6ee <DIO_WritePin>
 162:	c4 fb       	bst	r28, 4
 164:	66 27       	eor	r22, r22
 166:	60 f9       	bld	r22, 0
 168:	88 e0       	ldi	r24, 0x08	; 8
 16a:	0e 94 77 03 	call	0x6ee	; 0x6ee <DIO_WritePin>
 16e:	61 e0       	ldi	r22, 0x01	; 1
 170:	82 e0       	ldi	r24, 0x02	; 2
 172:	0e 94 77 03 	call	0x6ee	; 0x6ee <DIO_WritePin>
 176:	8f ec       	ldi	r24, 0xCF	; 207
 178:	97 e0       	ldi	r25, 0x07	; 7
 17a:	01 97       	sbiw	r24, 0x01	; 1
 17c:	f1 f7       	brne	.-4      	; 0x17a <WriteIns+0x4a>
 17e:	00 c0       	rjmp	.+0      	; 0x180 <WriteIns+0x50>
 180:	00 00       	nop
 182:	60 e0       	ldi	r22, 0x00	; 0
 184:	82 e0       	ldi	r24, 0x02	; 2
 186:	0e 94 77 03 	call	0x6ee	; 0x6ee <DIO_WritePin>
 18a:	8f ec       	ldi	r24, 0xCF	; 207
 18c:	97 e0       	ldi	r25, 0x07	; 7
 18e:	01 97       	sbiw	r24, 0x01	; 1
 190:	f1 f7       	brne	.-4      	; 0x18e <WriteIns+0x5e>
 192:	00 c0       	rjmp	.+0      	; 0x194 <WriteIns+0x64>
 194:	00 00       	nop
 196:	c3 fb       	bst	r28, 3
 198:	66 27       	eor	r22, r22
 19a:	60 f9       	bld	r22, 0
 19c:	8c e0       	ldi	r24, 0x0C	; 12
 19e:	0e 94 77 03 	call	0x6ee	; 0x6ee <DIO_WritePin>
 1a2:	c2 fb       	bst	r28, 2
 1a4:	66 27       	eor	r22, r22
 1a6:	60 f9       	bld	r22, 0
 1a8:	8a e0       	ldi	r24, 0x0A	; 10
 1aa:	0e 94 77 03 	call	0x6ee	; 0x6ee <DIO_WritePin>
 1ae:	c1 fb       	bst	r28, 1
 1b0:	66 27       	eor	r22, r22
 1b2:	60 f9       	bld	r22, 0
 1b4:	89 e0       	ldi	r24, 0x09	; 9
 1b6:	0e 94 77 03 	call	0x6ee	; 0x6ee <DIO_WritePin>
 1ba:	6c 2f       	mov	r22, r28
 1bc:	61 70       	andi	r22, 0x01	; 1
 1be:	88 e0       	ldi	r24, 0x08	; 8
 1c0:	0e 94 77 03 	call	0x6ee	; 0x6ee <DIO_WritePin>
 1c4:	61 e0       	ldi	r22, 0x01	; 1
 1c6:	82 e0       	ldi	r24, 0x02	; 2
 1c8:	0e 94 77 03 	call	0x6ee	; 0x6ee <DIO_WritePin>
 1cc:	8f ec       	ldi	r24, 0xCF	; 207
 1ce:	97 e0       	ldi	r25, 0x07	; 7
 1d0:	01 97       	sbiw	r24, 0x01	; 1
 1d2:	f1 f7       	brne	.-4      	; 0x1d0 <WriteIns+0xa0>
 1d4:	00 c0       	rjmp	.+0      	; 0x1d6 <WriteIns+0xa6>
 1d6:	00 00       	nop
 1d8:	60 e0       	ldi	r22, 0x00	; 0
 1da:	82 e0       	ldi	r24, 0x02	; 2
 1dc:	0e 94 77 03 	call	0x6ee	; 0x6ee <DIO_WritePin>
 1e0:	8f ec       	ldi	r24, 0xCF	; 207
 1e2:	97 e0       	ldi	r25, 0x07	; 7
 1e4:	01 97       	sbiw	r24, 0x01	; 1
 1e6:	f1 f7       	brne	.-4      	; 0x1e4 <WriteIns+0xb4>
 1e8:	00 c0       	rjmp	.+0      	; 0x1ea <WriteIns+0xba>
 1ea:	00 00       	nop
 1ec:	cf 91       	pop	r28
 1ee:	08 95       	ret

000001f0 <WriteData>:
 1f0:	cf 93       	push	r28
 1f2:	c8 2f       	mov	r28, r24
 1f4:	61 e0       	ldi	r22, 0x01	; 1
 1f6:	83 e0       	ldi	r24, 0x03	; 3
 1f8:	0e 94 77 03 	call	0x6ee	; 0x6ee <DIO_WritePin>
 1fc:	6c 2f       	mov	r22, r28
 1fe:	66 1f       	adc	r22, r22
 200:	66 27       	eor	r22, r22
 202:	66 1f       	adc	r22, r22
 204:	8c e0       	ldi	r24, 0x0C	; 12
 206:	0e 94 77 03 	call	0x6ee	; 0x6ee <DIO_WritePin>
 20a:	c6 fb       	bst	r28, 6
 20c:	66 27       	eor	r22, r22
 20e:	60 f9       	bld	r22, 0
 210:	8a e0       	ldi	r24, 0x0A	; 10
 212:	0e 94 77 03 	call	0x6ee	; 0x6ee <DIO_WritePin>
 216:	c5 fb       	bst	r28, 5
 218:	66 27       	eor	r22, r22
 21a:	60 f9       	bld	r22, 0
 21c:	89 e0       	ldi	r24, 0x09	; 9
 21e:	0e 94 77 03 	call	0x6ee	; 0x6ee <DIO_WritePin>
 222:	c4 fb       	bst	r28, 4
 224:	66 27       	eor	r22, r22
 226:	60 f9       	bld	r22, 0
 228:	88 e0       	ldi	r24, 0x08	; 8
 22a:	0e 94 77 03 	call	0x6ee	; 0x6ee <DIO_WritePin>
 22e:	61 e0       	ldi	r22, 0x01	; 1
 230:	82 e0       	ldi	r24, 0x02	; 2
 232:	0e 94 77 03 	call	0x6ee	; 0x6ee <DIO_WritePin>
 236:	8f ec       	ldi	r24, 0xCF	; 207
 238:	97 e0       	ldi	r25, 0x07	; 7
 23a:	01 97       	sbiw	r24, 0x01	; 1
 23c:	f1 f7       	brne	.-4      	; 0x23a <WriteData+0x4a>
 23e:	00 c0       	rjmp	.+0      	; 0x240 <WriteData+0x50>
 240:	00 00       	nop
 242:	60 e0       	ldi	r22, 0x00	; 0
 244:	82 e0       	ldi	r24, 0x02	; 2
 246:	0e 94 77 03 	call	0x6ee	; 0x6ee <DIO_WritePin>
 24a:	8f ec       	ldi	r24, 0xCF	; 207
 24c:	97 e0       	ldi	r25, 0x07	; 7
 24e:	01 97       	sbiw	r24, 0x01	; 1
 250:	f1 f7       	brne	.-4      	; 0x24e <WriteData+0x5e>
 252:	00 c0       	rjmp	.+0      	; 0x254 <WriteData+0x64>
 254:	00 00       	nop
 256:	c3 fb       	bst	r28, 3
 258:	66 27       	eor	r22, r22
 25a:	60 f9       	bld	r22, 0
 25c:	8c e0       	ldi	r24, 0x0C	; 12
 25e:	0e 94 77 03 	call	0x6ee	; 0x6ee <DIO_WritePin>
 262:	c2 fb       	bst	r28, 2
 264:	66 27       	eor	r22, r22
 266:	60 f9       	bld	r22, 0
 268:	8a e0       	ldi	r24, 0x0A	; 10
 26a:	0e 94 77 03 	call	0x6ee	; 0x6ee <DIO_WritePin>
 26e:	c1 fb       	bst	r28, 1
 270:	66 27       	eor	r22, r22
 272:	60 f9       	bld	r22, 0
 274:	89 e0       	ldi	r24, 0x09	; 9
 276:	0e 94 77 03 	call	0x6ee	; 0x6ee <DIO_WritePin>
 27a:	6c 2f       	mov	r22, r28
 27c:	61 70       	andi	r22, 0x01	; 1
 27e:	88 e0       	ldi	r24, 0x08	; 8
 280:	0e 94 77 03 	call	0x6ee	; 0x6ee <DIO_WritePin>
 284:	61 e0       	ldi	r22, 0x01	; 1
 286:	82 e0       	ldi	r24, 0x02	; 2
 288:	0e 94 77 03 	call	0x6ee	; 0x6ee <DIO_WritePin>
 28c:	8f ec       	ldi	r24, 0xCF	; 207
 28e:	97 e0       	ldi	r25, 0x07	; 7
 290:	01 97       	sbiw	r24, 0x01	; 1
 292:	f1 f7       	brne	.-4      	; 0x290 <WriteData+0xa0>
 294:	00 c0       	rjmp	.+0      	; 0x296 <WriteData+0xa6>
 296:	00 00       	nop
 298:	60 e0       	ldi	r22, 0x00	; 0
 29a:	82 e0       	ldi	r24, 0x02	; 2
 29c:	0e 94 77 03 	call	0x6ee	; 0x6ee <DIO_WritePin>
 2a0:	8f ec       	ldi	r24, 0xCF	; 207
 2a2:	97 e0       	ldi	r25, 0x07	; 7
 2a4:	01 97       	sbiw	r24, 0x01	; 1
 2a6:	f1 f7       	brne	.-4      	; 0x2a4 <WriteData+0xb4>
 2a8:	00 c0       	rjmp	.+0      	; 0x2aa <WriteData+0xba>
 2aa:	00 00       	nop
 2ac:	cf 91       	pop	r28
 2ae:	08 95       	ret

000002b0 <LCD_Clear>:
 2b0:	81 e0       	ldi	r24, 0x01	; 1
 2b2:	0e 94 98 00 	call	0x130	; 0x130 <WriteIns>
 2b6:	8f ec       	ldi	r24, 0xCF	; 207
 2b8:	97 e0       	ldi	r25, 0x07	; 7
 2ba:	01 97       	sbiw	r24, 0x01	; 1
 2bc:	f1 f7       	brne	.-4      	; 0x2ba <LCD_Clear+0xa>
 2be:	00 c0       	rjmp	.+0      	; 0x2c0 <LCD_Clear+0x10>
 2c0:	00 00       	nop
 2c2:	08 95       	ret

000002c4 <LCD_Init>:
 2c4:	2f e7       	ldi	r18, 0x7F	; 127
 2c6:	88 e3       	ldi	r24, 0x38	; 56
 2c8:	91 e0       	ldi	r25, 0x01	; 1
 2ca:	21 50       	subi	r18, 0x01	; 1
 2cc:	80 40       	sbci	r24, 0x00	; 0
 2ce:	90 40       	sbci	r25, 0x00	; 0
 2d0:	e1 f7       	brne	.-8      	; 0x2ca <LCD_Init+0x6>
 2d2:	00 c0       	rjmp	.+0      	; 0x2d4 <LCD_Init+0x10>
 2d4:	00 00       	nop
 2d6:	82 e0       	ldi	r24, 0x02	; 2
 2d8:	0e 94 98 00 	call	0x130	; 0x130 <WriteIns>
 2dc:	88 e2       	ldi	r24, 0x28	; 40
 2de:	0e 94 98 00 	call	0x130	; 0x130 <WriteIns>
 2e2:	8c e0       	ldi	r24, 0x0C	; 12
 2e4:	0e 94 98 00 	call	0x130	; 0x130 <WriteIns>
 2e8:	0e 94 58 01 	call	0x2b0	; 0x2b0 <LCD_Clear>
 2ec:	86 e0       	ldi	r24, 0x06	; 6
 2ee:	0c 94 98 00 	jmp	0x130	; 0x130 <WriteIns>

000002f2 <LCD_GoTo>:
 2f2:	98 2f       	mov	r25, r24
 2f4:	86 2f       	mov	r24, r22
 2f6:	91 11       	cpse	r25, r1
 2f8:	02 c0       	rjmp	.+4      	; 0x2fe <LCD_GoTo+0xc>
 2fa:	80 58       	subi	r24, 0x80	; 128
 2fc:	0b c0       	rjmp	.+22     	; 0x314 <LCD_GoTo+0x22>
 2fe:	91 30       	cpi	r25, 0x01	; 1
 300:	11 f4       	brne	.+4      	; 0x306 <LCD_GoTo+0x14>
 302:	80 54       	subi	r24, 0x40	; 64
 304:	07 c0       	rjmp	.+14     	; 0x314 <LCD_GoTo+0x22>
 306:	92 30       	cpi	r25, 0x02	; 2
 308:	11 f4       	brne	.+4      	; 0x30e <LCD_GoTo+0x1c>
 30a:	8c 56       	subi	r24, 0x6C	; 108
 30c:	03 c0       	rjmp	.+6      	; 0x314 <LCD_GoTo+0x22>
 30e:	93 30       	cpi	r25, 0x03	; 3
 310:	19 f4       	brne	.+6      	; 0x318 <LCD_GoTo+0x26>
 312:	8c 52       	subi	r24, 0x2C	; 44
 314:	0c 94 98 00 	jmp	0x130	; 0x130 <WriteIns>
 318:	08 95       	ret

0000031a <LCD_WriteString>:
 31a:	0f 93       	push	r16
 31c:	1f 93       	push	r17
 31e:	cf 93       	push	r28
 320:	8c 01       	movw	r16, r24
 322:	c0 e0       	ldi	r28, 0x00	; 0
 324:	f8 01       	movw	r30, r16
 326:	ec 0f       	add	r30, r28
 328:	f1 1d       	adc	r31, r1
 32a:	80 81       	ld	r24, Z
 32c:	88 23       	and	r24, r24
 32e:	21 f0       	breq	.+8      	; 0x338 <LCD_WriteString+0x1e>
 330:	0e 94 f8 00 	call	0x1f0	; 0x1f0 <WriteData>
 334:	cf 5f       	subi	r28, 0xFF	; 255
 336:	f6 cf       	rjmp	.-20     	; 0x324 <LCD_WriteString+0xa>
 338:	cf 91       	pop	r28
 33a:	1f 91       	pop	r17
 33c:	0f 91       	pop	r16
 33e:	08 95       	ret

00000340 <Interrupt_Code>:
 340:	81 e0       	ldi	r24, 0x01	; 1
 342:	80 93 9e 00 	sts	0x009E, r24	; 0x80009e <flag1>
 346:	08 95       	ret

00000348 <ADC_Code>:
 348:	80 e0       	ldi	r24, 0x00	; 0
 34a:	0e 94 f8 01 	call	0x3f0	; 0x3f0 <ADC_Read>
 34e:	90 93 9d 00 	sts	0x009D, r25	; 0x80009d <read+0x1>
 352:	80 93 9c 00 	sts	0x009C, r24	; 0x80009c <read>
 356:	80 e0       	ldi	r24, 0x00	; 0
 358:	0e 94 04 02 	call	0x408	; 0x408 <ADC_VoltRead>
 35c:	90 93 9b 00 	sts	0x009B, r25	; 0x80009b <__data_end+0x1>
 360:	80 93 9a 00 	sts	0x009A, r24	; 0x80009a <__data_end>
 364:	82 e0       	ldi	r24, 0x02	; 2
 366:	80 93 9e 00 	sts	0x009E, r24	; 0x80009e <flag1>
 36a:	08 95       	ret

0000036c <main>:
 36c:	78 94       	sei
 36e:	0e 94 64 03 	call	0x6c8	; 0x6c8 <DIO_Init>
 372:	0e 94 5c 04 	call	0x8b8	; 0x8b8 <EXI_Init>
 376:	0e 94 62 01 	call	0x2c4	; 0x2c4 <LCD_Init>
 37a:	66 e0       	ldi	r22, 0x06	; 6
 37c:	81 e0       	ldi	r24, 0x01	; 1
 37e:	0e 94 e3 01 	call	0x3c6	; 0x3c6 <ADC_Init>
 382:	0e 94 43 02 	call	0x486	; 0x486 <ADC_InterruptEnable>
 386:	80 e0       	ldi	r24, 0x00	; 0
 388:	0e 94 06 04 	call	0x80c	; 0x80c <EXI_Enable>
 38c:	63 e0       	ldi	r22, 0x03	; 3
 38e:	80 e0       	ldi	r24, 0x00	; 0
 390:	0e 94 16 04 	call	0x82c	; 0x82c <EXI_TriggerEdge>
 394:	82 e0       	ldi	r24, 0x02	; 2
 396:	0e 94 15 02 	call	0x42a	; 0x42a <ADC_AutoTriggered>
 39a:	60 ea       	ldi	r22, 0xA0	; 160
 39c:	71 e0       	ldi	r23, 0x01	; 1
 39e:	80 e0       	ldi	r24, 0x00	; 0
 3a0:	0e 94 68 04 	call	0x8d0	; 0x8d0 <EXI_SetCallBack>
 3a4:	84 ea       	ldi	r24, 0xA4	; 164
 3a6:	91 e0       	ldi	r25, 0x01	; 1
 3a8:	0e 94 45 02 	call	0x48a	; 0x48a <ADC_SetCallBack>
 3ac:	60 e0       	ldi	r22, 0x00	; 0
 3ae:	80 e0       	ldi	r24, 0x00	; 0
 3b0:	0e 94 79 01 	call	0x2f2	; 0x2f2 <LCD_GoTo>
 3b4:	8a e6       	ldi	r24, 0x6A	; 106
 3b6:	90 e0       	ldi	r25, 0x00	; 0
 3b8:	0e 94 8d 01 	call	0x31a	; 0x31a <LCD_WriteString>
 3bc:	83 e2       	ldi	r24, 0x23	; 35
 3be:	90 e0       	ldi	r25, 0x00	; 0
 3c0:	0e 94 51 00 	call	0xa2	; 0xa2 <segment_display_BCD>
 3c4:	fb cf       	rjmp	.-10     	; 0x3bc <main+0x50>

000003c6 <ADC_Init>:
 3c6:	81 30       	cpi	r24, 0x01	; 1
 3c8:	41 f0       	breq	.+16     	; 0x3da <ADC_Init+0x14>
 3ca:	28 f0       	brcs	.+10     	; 0x3d6 <ADC_Init+0x10>
 3cc:	82 30       	cpi	r24, 0x02	; 2
 3ce:	39 f4       	brne	.+14     	; 0x3de <ADC_Init+0x18>
 3d0:	3e 9a       	sbi	0x07, 6	; 7
 3d2:	3f 9a       	sbi	0x07, 7	; 7
 3d4:	04 c0       	rjmp	.+8      	; 0x3de <ADC_Init+0x18>
 3d6:	3e 98       	cbi	0x07, 6	; 7
 3d8:	01 c0       	rjmp	.+2      	; 0x3dc <ADC_Init+0x16>
 3da:	3e 9a       	sbi	0x07, 6	; 7
 3dc:	3f 98       	cbi	0x07, 7	; 7
 3de:	86 b1       	in	r24, 0x06	; 6
 3e0:	88 7f       	andi	r24, 0xF8	; 248
 3e2:	86 b9       	out	0x06, r24	; 6
 3e4:	86 b1       	in	r24, 0x06	; 6
 3e6:	67 70       	andi	r22, 0x07	; 7
 3e8:	68 2b       	or	r22, r24
 3ea:	66 b9       	out	0x06, r22	; 6
 3ec:	37 9a       	sbi	0x06, 7	; 6
 3ee:	08 95       	ret

000003f0 <ADC_Read>:
 3f0:	97 b1       	in	r25, 0x07	; 7
 3f2:	90 7e       	andi	r25, 0xE0	; 224
 3f4:	97 b9       	out	0x07, r25	; 7
 3f6:	97 b1       	in	r25, 0x07	; 7
 3f8:	89 2b       	or	r24, r25
 3fa:	87 b9       	out	0x07, r24	; 7
 3fc:	36 9a       	sbi	0x06, 6	; 6
 3fe:	36 99       	sbic	0x06, 6	; 6
 400:	fe cf       	rjmp	.-4      	; 0x3fe <ADC_Read+0xe>
 402:	84 b1       	in	r24, 0x04	; 4
 404:	95 b1       	in	r25, 0x05	; 5
 406:	08 95       	ret

00000408 <ADC_VoltRead>:
 408:	0e 94 f8 01 	call	0x3f0	; 0x3f0 <ADC_Read>
 40c:	9c 01       	movw	r18, r24
 40e:	a8 e8       	ldi	r26, 0x88	; 136
 410:	b3 e1       	ldi	r27, 0x13	; 19
 412:	0e 94 13 05 	call	0xa26	; 0xa26 <__umulhisi3>
 416:	dc 01       	movw	r26, r24
 418:	cb 01       	movw	r24, r22
 41a:	2a e0       	ldi	r18, 0x0A	; 10
 41c:	b6 95       	lsr	r27
 41e:	a7 95       	ror	r26
 420:	97 95       	ror	r25
 422:	87 95       	ror	r24
 424:	2a 95       	dec	r18
 426:	d1 f7       	brne	.-12     	; 0x41c <ADC_VoltRead+0x14>
 428:	08 95       	ret

0000042a <ADC_AutoTriggered>:
 42a:	35 9a       	sbi	0x06, 5	; 6
 42c:	90 e0       	ldi	r25, 0x00	; 0
 42e:	88 30       	cpi	r24, 0x08	; 8
 430:	91 05       	cpc	r25, r1
 432:	40 f5       	brcc	.+80     	; 0x484 <ADC_AutoTriggered+0x5a>
 434:	fc 01       	movw	r30, r24
 436:	e6 5d       	subi	r30, 0xD6	; 214
 438:	ff 4f       	sbci	r31, 0xFF	; 255
 43a:	80 b7       	in	r24, 0x30	; 48
 43c:	0c 94 0d 05 	jmp	0xa1a	; 0xa1a <__tablejump2__>
 440:	8f 7d       	andi	r24, 0xDF	; 223
 442:	01 c0       	rjmp	.+2      	; 0x446 <ADC_AutoTriggered+0x1c>
 444:	80 62       	ori	r24, 0x20	; 32
 446:	80 bf       	out	0x30, r24	; 48
 448:	80 b7       	in	r24, 0x30	; 48
 44a:	8f 7b       	andi	r24, 0xBF	; 191
 44c:	06 c0       	rjmp	.+12     	; 0x45a <ADC_AutoTriggered+0x30>
 44e:	8f 7d       	andi	r24, 0xDF	; 223
 450:	01 c0       	rjmp	.+2      	; 0x454 <ADC_AutoTriggered+0x2a>
 452:	80 62       	ori	r24, 0x20	; 32
 454:	80 bf       	out	0x30, r24	; 48
 456:	80 b7       	in	r24, 0x30	; 48
 458:	80 64       	ori	r24, 0x40	; 64
 45a:	80 bf       	out	0x30, r24	; 48
 45c:	80 b7       	in	r24, 0x30	; 48
 45e:	8f 77       	andi	r24, 0x7F	; 127
 460:	10 c0       	rjmp	.+32     	; 0x482 <ADC_AutoTriggered+0x58>
 462:	8f 7d       	andi	r24, 0xDF	; 223
 464:	01 c0       	rjmp	.+2      	; 0x468 <ADC_AutoTriggered+0x3e>
 466:	80 62       	ori	r24, 0x20	; 32
 468:	80 bf       	out	0x30, r24	; 48
 46a:	80 b7       	in	r24, 0x30	; 48
 46c:	8f 7b       	andi	r24, 0xBF	; 191
 46e:	06 c0       	rjmp	.+12     	; 0x47c <ADC_AutoTriggered+0x52>
 470:	8f 7d       	andi	r24, 0xDF	; 223
 472:	01 c0       	rjmp	.+2      	; 0x476 <ADC_AutoTriggered+0x4c>
 474:	80 62       	ori	r24, 0x20	; 32
 476:	80 bf       	out	0x30, r24	; 48
 478:	80 b7       	in	r24, 0x30	; 48
 47a:	80 64       	ori	r24, 0x40	; 64
 47c:	80 bf       	out	0x30, r24	; 48
 47e:	80 b7       	in	r24, 0x30	; 48
 480:	80 68       	ori	r24, 0x80	; 128
 482:	80 bf       	out	0x30, r24	; 48
 484:	08 95       	ret

00000486 <ADC_InterruptEnable>:
 486:	33 9a       	sbi	0x06, 3	; 6
 488:	08 95       	ret

0000048a <ADC_SetCallBack>:
 48a:	90 93 a0 00 	sts	0x00A0, r25	; 0x8000a0 <ADC_Fptr+0x1>
 48e:	80 93 9f 00 	sts	0x009F, r24	; 0x80009f <ADC_Fptr>
 492:	08 95       	ret

00000494 <__vector_16>:
 494:	1f 92       	push	r1
 496:	0f 92       	push	r0
 498:	0f b6       	in	r0, 0x3f	; 63
 49a:	0f 92       	push	r0
 49c:	11 24       	eor	r1, r1
 49e:	2f 93       	push	r18
 4a0:	3f 93       	push	r19
 4a2:	4f 93       	push	r20
 4a4:	5f 93       	push	r21
 4a6:	6f 93       	push	r22
 4a8:	7f 93       	push	r23
 4aa:	8f 93       	push	r24
 4ac:	9f 93       	push	r25
 4ae:	af 93       	push	r26
 4b0:	bf 93       	push	r27
 4b2:	ef 93       	push	r30
 4b4:	ff 93       	push	r31
 4b6:	e0 91 9f 00 	lds	r30, 0x009F	; 0x80009f <ADC_Fptr>
 4ba:	f0 91 a0 00 	lds	r31, 0x00A0	; 0x8000a0 <ADC_Fptr+0x1>
 4be:	30 97       	sbiw	r30, 0x00	; 0
 4c0:	09 f0       	breq	.+2      	; 0x4c4 <__vector_16+0x30>
 4c2:	09 95       	icall
 4c4:	ff 91       	pop	r31
 4c6:	ef 91       	pop	r30
 4c8:	bf 91       	pop	r27
 4ca:	af 91       	pop	r26
 4cc:	9f 91       	pop	r25
 4ce:	8f 91       	pop	r24
 4d0:	7f 91       	pop	r23
 4d2:	6f 91       	pop	r22
 4d4:	5f 91       	pop	r21
 4d6:	4f 91       	pop	r20
 4d8:	3f 91       	pop	r19
 4da:	2f 91       	pop	r18
 4dc:	0f 90       	pop	r0
 4de:	0f be       	out	0x3f, r0	; 63
 4e0:	0f 90       	pop	r0
 4e2:	1f 90       	pop	r1
 4e4:	18 95       	reti

000004e6 <DIO_InitPin>:
 4e6:	98 2f       	mov	r25, r24
 4e8:	97 70       	andi	r25, 0x07	; 7
 4ea:	86 95       	lsr	r24
 4ec:	86 95       	lsr	r24
 4ee:	86 95       	lsr	r24
 4f0:	61 30       	cpi	r22, 0x01	; 1
 4f2:	09 f4       	brne	.+2      	; 0x4f6 <DIO_InitPin+0x10>
 4f4:	4d c0       	rjmp	.+154    	; 0x590 <DIO_InitPin+0xaa>
 4f6:	20 f0       	brcs	.+8      	; 0x500 <DIO_InitPin+0x1a>
 4f8:	62 30       	cpi	r22, 0x02	; 2
 4fa:	09 f4       	brne	.+2      	; 0x4fe <DIO_InitPin+0x18>
 4fc:	96 c0       	rjmp	.+300    	; 0x62a <DIO_InitPin+0x144>
 4fe:	08 95       	ret
 500:	81 30       	cpi	r24, 0x01	; 1
 502:	b1 f0       	breq	.+44     	; 0x530 <DIO_InitPin+0x4a>
 504:	28 f0       	brcs	.+10     	; 0x510 <DIO_InitPin+0x2a>
 506:	82 30       	cpi	r24, 0x02	; 2
 508:	19 f1       	breq	.+70     	; 0x550 <DIO_InitPin+0x6a>
 50a:	83 30       	cpi	r24, 0x03	; 3
 50c:	89 f1       	breq	.+98     	; 0x570 <DIO_InitPin+0x8a>
 50e:	08 95       	ret
 510:	4a b3       	in	r20, 0x1a	; 26
 512:	21 e0       	ldi	r18, 0x01	; 1
 514:	30 e0       	ldi	r19, 0x00	; 0
 516:	b9 01       	movw	r22, r18
 518:	02 c0       	rjmp	.+4      	; 0x51e <DIO_InitPin+0x38>
 51a:	66 0f       	add	r22, r22
 51c:	77 1f       	adc	r23, r23
 51e:	9a 95       	dec	r25
 520:	e2 f7       	brpl	.-8      	; 0x51a <DIO_InitPin+0x34>
 522:	cb 01       	movw	r24, r22
 524:	94 2f       	mov	r25, r20
 526:	98 2b       	or	r25, r24
 528:	9a bb       	out	0x1a, r25	; 26
 52a:	9b b3       	in	r25, 0x1b	; 27
 52c:	80 95       	com	r24
 52e:	47 c0       	rjmp	.+142    	; 0x5be <DIO_InitPin+0xd8>
 530:	47 b3       	in	r20, 0x17	; 23
 532:	21 e0       	ldi	r18, 0x01	; 1
 534:	30 e0       	ldi	r19, 0x00	; 0
 536:	b9 01       	movw	r22, r18
 538:	02 c0       	rjmp	.+4      	; 0x53e <DIO_InitPin+0x58>
 53a:	66 0f       	add	r22, r22
 53c:	77 1f       	adc	r23, r23
 53e:	9a 95       	dec	r25
 540:	e2 f7       	brpl	.-8      	; 0x53a <DIO_InitPin+0x54>
 542:	cb 01       	movw	r24, r22
 544:	94 2f       	mov	r25, r20
 546:	98 2b       	or	r25, r24
 548:	97 bb       	out	0x17, r25	; 23
 54a:	98 b3       	in	r25, 0x18	; 24
 54c:	80 95       	com	r24
 54e:	49 c0       	rjmp	.+146    	; 0x5e2 <DIO_InitPin+0xfc>
 550:	44 b3       	in	r20, 0x14	; 20
 552:	21 e0       	ldi	r18, 0x01	; 1
 554:	30 e0       	ldi	r19, 0x00	; 0
 556:	b9 01       	movw	r22, r18
 558:	02 c0       	rjmp	.+4      	; 0x55e <DIO_InitPin+0x78>
 55a:	66 0f       	add	r22, r22
 55c:	77 1f       	adc	r23, r23
 55e:	9a 95       	dec	r25
 560:	e2 f7       	brpl	.-8      	; 0x55a <DIO_InitPin+0x74>
 562:	cb 01       	movw	r24, r22
 564:	94 2f       	mov	r25, r20
 566:	98 2b       	or	r25, r24
 568:	94 bb       	out	0x14, r25	; 20
 56a:	95 b3       	in	r25, 0x15	; 21
 56c:	80 95       	com	r24
 56e:	4a c0       	rjmp	.+148    	; 0x604 <DIO_InitPin+0x11e>
 570:	41 b3       	in	r20, 0x11	; 17
 572:	21 e0       	ldi	r18, 0x01	; 1
 574:	30 e0       	ldi	r19, 0x00	; 0
 576:	b9 01       	movw	r22, r18
 578:	02 c0       	rjmp	.+4      	; 0x57e <DIO_InitPin+0x98>
 57a:	66 0f       	add	r22, r22
 57c:	77 1f       	adc	r23, r23
 57e:	9a 95       	dec	r25
 580:	e2 f7       	brpl	.-8      	; 0x57a <DIO_InitPin+0x94>
 582:	cb 01       	movw	r24, r22
 584:	94 2f       	mov	r25, r20
 586:	98 2b       	or	r25, r24
 588:	91 bb       	out	0x11, r25	; 17
 58a:	92 b3       	in	r25, 0x12	; 18
 58c:	80 95       	com	r24
 58e:	4b c0       	rjmp	.+150    	; 0x626 <DIO_InitPin+0x140>
 590:	81 30       	cpi	r24, 0x01	; 1
 592:	c1 f0       	breq	.+48     	; 0x5c4 <DIO_InitPin+0xde>
 594:	28 f0       	brcs	.+10     	; 0x5a0 <DIO_InitPin+0xba>
 596:	82 30       	cpi	r24, 0x02	; 2
 598:	31 f1       	breq	.+76     	; 0x5e6 <DIO_InitPin+0x100>
 59a:	83 30       	cpi	r24, 0x03	; 3
 59c:	a9 f1       	breq	.+106    	; 0x608 <DIO_InitPin+0x122>
 59e:	08 95       	ret
 5a0:	4a b3       	in	r20, 0x1a	; 26
 5a2:	21 e0       	ldi	r18, 0x01	; 1
 5a4:	30 e0       	ldi	r19, 0x00	; 0
 5a6:	b9 01       	movw	r22, r18
 5a8:	02 c0       	rjmp	.+4      	; 0x5ae <DIO_InitPin+0xc8>
 5aa:	66 0f       	add	r22, r22
 5ac:	77 1f       	adc	r23, r23
 5ae:	9a 95       	dec	r25
 5b0:	e2 f7       	brpl	.-8      	; 0x5aa <DIO_InitPin+0xc4>
 5b2:	cb 01       	movw	r24, r22
 5b4:	80 95       	com	r24
 5b6:	94 2f       	mov	r25, r20
 5b8:	98 23       	and	r25, r24
 5ba:	9a bb       	out	0x1a, r25	; 26
 5bc:	9b b3       	in	r25, 0x1b	; 27
 5be:	89 23       	and	r24, r25
 5c0:	8b bb       	out	0x1b, r24	; 27
 5c2:	08 95       	ret
 5c4:	47 b3       	in	r20, 0x17	; 23
 5c6:	21 e0       	ldi	r18, 0x01	; 1
 5c8:	30 e0       	ldi	r19, 0x00	; 0
 5ca:	b9 01       	movw	r22, r18
 5cc:	02 c0       	rjmp	.+4      	; 0x5d2 <DIO_InitPin+0xec>
 5ce:	66 0f       	add	r22, r22
 5d0:	77 1f       	adc	r23, r23
 5d2:	9a 95       	dec	r25
 5d4:	e2 f7       	brpl	.-8      	; 0x5ce <DIO_InitPin+0xe8>
 5d6:	cb 01       	movw	r24, r22
 5d8:	80 95       	com	r24
 5da:	94 2f       	mov	r25, r20
 5dc:	98 23       	and	r25, r24
 5de:	97 bb       	out	0x17, r25	; 23
 5e0:	98 b3       	in	r25, 0x18	; 24
 5e2:	89 23       	and	r24, r25
 5e4:	4b c0       	rjmp	.+150    	; 0x67c <DIO_InitPin+0x196>
 5e6:	44 b3       	in	r20, 0x14	; 20
 5e8:	21 e0       	ldi	r18, 0x01	; 1
 5ea:	30 e0       	ldi	r19, 0x00	; 0
 5ec:	b9 01       	movw	r22, r18
 5ee:	02 c0       	rjmp	.+4      	; 0x5f4 <DIO_InitPin+0x10e>
 5f0:	66 0f       	add	r22, r22
 5f2:	77 1f       	adc	r23, r23
 5f4:	9a 95       	dec	r25
 5f6:	e2 f7       	brpl	.-8      	; 0x5f0 <DIO_InitPin+0x10a>
 5f8:	cb 01       	movw	r24, r22
 5fa:	80 95       	com	r24
 5fc:	94 2f       	mov	r25, r20
 5fe:	98 23       	and	r25, r24
 600:	94 bb       	out	0x14, r25	; 20
 602:	95 b3       	in	r25, 0x15	; 21
 604:	89 23       	and	r24, r25
 606:	4c c0       	rjmp	.+152    	; 0x6a0 <DIO_InitPin+0x1ba>
 608:	41 b3       	in	r20, 0x11	; 17
 60a:	21 e0       	ldi	r18, 0x01	; 1
 60c:	30 e0       	ldi	r19, 0x00	; 0
 60e:	b9 01       	movw	r22, r18
 610:	02 c0       	rjmp	.+4      	; 0x616 <DIO_InitPin+0x130>
 612:	66 0f       	add	r22, r22
 614:	77 1f       	adc	r23, r23
 616:	9a 95       	dec	r25
 618:	e2 f7       	brpl	.-8      	; 0x612 <DIO_InitPin+0x12c>
 61a:	cb 01       	movw	r24, r22
 61c:	80 95       	com	r24
 61e:	94 2f       	mov	r25, r20
 620:	98 23       	and	r25, r24
 622:	91 bb       	out	0x11, r25	; 17
 624:	92 b3       	in	r25, 0x12	; 18
 626:	89 23       	and	r24, r25
 628:	4d c0       	rjmp	.+154    	; 0x6c4 <DIO_InitPin+0x1de>
 62a:	81 30       	cpi	r24, 0x01	; 1
 62c:	b9 f0       	breq	.+46     	; 0x65c <DIO_InitPin+0x176>
 62e:	28 f0       	brcs	.+10     	; 0x63a <DIO_InitPin+0x154>
 630:	82 30       	cpi	r24, 0x02	; 2
 632:	31 f1       	breq	.+76     	; 0x680 <DIO_InitPin+0x19a>
 634:	83 30       	cpi	r24, 0x03	; 3
 636:	b1 f1       	breq	.+108    	; 0x6a4 <DIO_InitPin+0x1be>
 638:	08 95       	ret
 63a:	4a b3       	in	r20, 0x1a	; 26
 63c:	21 e0       	ldi	r18, 0x01	; 1
 63e:	30 e0       	ldi	r19, 0x00	; 0
 640:	b9 01       	movw	r22, r18
 642:	02 c0       	rjmp	.+4      	; 0x648 <DIO_InitPin+0x162>
 644:	66 0f       	add	r22, r22
 646:	77 1f       	adc	r23, r23
 648:	9a 95       	dec	r25
 64a:	e2 f7       	brpl	.-8      	; 0x644 <DIO_InitPin+0x15e>
 64c:	cb 01       	movw	r24, r22
 64e:	96 2f       	mov	r25, r22
 650:	90 95       	com	r25
 652:	94 23       	and	r25, r20
 654:	9a bb       	out	0x1a, r25	; 26
 656:	9b b3       	in	r25, 0x1b	; 27
 658:	89 2b       	or	r24, r25
 65a:	b2 cf       	rjmp	.-156    	; 0x5c0 <DIO_InitPin+0xda>
 65c:	47 b3       	in	r20, 0x17	; 23
 65e:	21 e0       	ldi	r18, 0x01	; 1
 660:	30 e0       	ldi	r19, 0x00	; 0
 662:	b9 01       	movw	r22, r18
 664:	02 c0       	rjmp	.+4      	; 0x66a <DIO_InitPin+0x184>
 666:	66 0f       	add	r22, r22
 668:	77 1f       	adc	r23, r23
 66a:	9a 95       	dec	r25
 66c:	e2 f7       	brpl	.-8      	; 0x666 <DIO_InitPin+0x180>
 66e:	cb 01       	movw	r24, r22
 670:	96 2f       	mov	r25, r22
 672:	90 95       	com	r25
 674:	94 23       	and	r25, r20
 676:	97 bb       	out	0x17, r25	; 23
 678:	98 b3       	in	r25, 0x18	; 24
 67a:	89 2b       	or	r24, r25
 67c:	88 bb       	out	0x18, r24	; 24
 67e:	08 95       	ret
 680:	44 b3       	in	r20, 0x14	; 20
 682:	21 e0       	ldi	r18, 0x01	; 1
 684:	30 e0       	ldi	r19, 0x00	; 0
 686:	b9 01       	movw	r22, r18
 688:	02 c0       	rjmp	.+4      	; 0x68e <DIO_InitPin+0x1a8>
 68a:	66 0f       	add	r22, r22
 68c:	77 1f       	adc	r23, r23
 68e:	9a 95       	dec	r25
 690:	e2 f7       	brpl	.-8      	; 0x68a <DIO_InitPin+0x1a4>
 692:	cb 01       	movw	r24, r22
 694:	96 2f       	mov	r25, r22
 696:	90 95       	com	r25
 698:	94 23       	and	r25, r20
 69a:	94 bb       	out	0x14, r25	; 20
 69c:	95 b3       	in	r25, 0x15	; 21
 69e:	89 2b       	or	r24, r25
 6a0:	85 bb       	out	0x15, r24	; 21
 6a2:	08 95       	ret
 6a4:	41 b3       	in	r20, 0x11	; 17
 6a6:	21 e0       	ldi	r18, 0x01	; 1
 6a8:	30 e0       	ldi	r19, 0x00	; 0
 6aa:	b9 01       	movw	r22, r18
 6ac:	02 c0       	rjmp	.+4      	; 0x6b2 <DIO_InitPin+0x1cc>
 6ae:	66 0f       	add	r22, r22
 6b0:	77 1f       	adc	r23, r23
 6b2:	9a 95       	dec	r25
 6b4:	e2 f7       	brpl	.-8      	; 0x6ae <DIO_InitPin+0x1c8>
 6b6:	cb 01       	movw	r24, r22
 6b8:	96 2f       	mov	r25, r22
 6ba:	90 95       	com	r25
 6bc:	94 23       	and	r25, r20
 6be:	91 bb       	out	0x11, r25	; 17
 6c0:	92 b3       	in	r25, 0x12	; 18
 6c2:	89 2b       	or	r24, r25
 6c4:	82 bb       	out	0x12, r24	; 18
 6c6:	08 95       	ret

000006c8 <DIO_Init>:
 6c8:	0f 93       	push	r16
 6ca:	1f 93       	push	r17
 6cc:	cf 93       	push	r28
 6ce:	0a e7       	ldi	r16, 0x7A	; 122
 6d0:	10 e0       	ldi	r17, 0x00	; 0
 6d2:	c0 e0       	ldi	r28, 0x00	; 0
 6d4:	f8 01       	movw	r30, r16
 6d6:	61 91       	ld	r22, Z+
 6d8:	8f 01       	movw	r16, r30
 6da:	8c 2f       	mov	r24, r28
 6dc:	0e 94 73 02 	call	0x4e6	; 0x4e6 <DIO_InitPin>
 6e0:	cf 5f       	subi	r28, 0xFF	; 255
 6e2:	c0 32       	cpi	r28, 0x20	; 32
 6e4:	b9 f7       	brne	.-18     	; 0x6d4 <DIO_Init+0xc>
 6e6:	cf 91       	pop	r28
 6e8:	1f 91       	pop	r17
 6ea:	0f 91       	pop	r16
 6ec:	08 95       	ret

000006ee <DIO_WritePin>:
 6ee:	98 2f       	mov	r25, r24
 6f0:	97 70       	andi	r25, 0x07	; 7
 6f2:	86 95       	lsr	r24
 6f4:	86 95       	lsr	r24
 6f6:	86 95       	lsr	r24
 6f8:	61 30       	cpi	r22, 0x01	; 1
 6fa:	c1 f5       	brne	.+112    	; 0x76c <DIO_WritePin+0x7e>
 6fc:	81 30       	cpi	r24, 0x01	; 1
 6fe:	91 f0       	breq	.+36     	; 0x724 <DIO_WritePin+0x36>
 700:	28 f0       	brcs	.+10     	; 0x70c <DIO_WritePin+0x1e>
 702:	82 30       	cpi	r24, 0x02	; 2
 704:	d9 f0       	breq	.+54     	; 0x73c <DIO_WritePin+0x4e>
 706:	83 30       	cpi	r24, 0x03	; 3
 708:	29 f1       	breq	.+74     	; 0x754 <DIO_WritePin+0x66>
 70a:	08 95       	ret
 70c:	4b b3       	in	r20, 0x1b	; 27
 70e:	21 e0       	ldi	r18, 0x01	; 1
 710:	30 e0       	ldi	r19, 0x00	; 0
 712:	b9 01       	movw	r22, r18
 714:	02 c0       	rjmp	.+4      	; 0x71a <DIO_WritePin+0x2c>
 716:	66 0f       	add	r22, r22
 718:	77 1f       	adc	r23, r23
 71a:	9a 95       	dec	r25
 71c:	e2 f7       	brpl	.-8      	; 0x716 <DIO_WritePin+0x28>
 71e:	cb 01       	movw	r24, r22
 720:	84 2b       	or	r24, r20
 722:	38 c0       	rjmp	.+112    	; 0x794 <DIO_WritePin+0xa6>
 724:	48 b3       	in	r20, 0x18	; 24
 726:	21 e0       	ldi	r18, 0x01	; 1
 728:	30 e0       	ldi	r19, 0x00	; 0
 72a:	b9 01       	movw	r22, r18
 72c:	02 c0       	rjmp	.+4      	; 0x732 <DIO_WritePin+0x44>
 72e:	66 0f       	add	r22, r22
 730:	77 1f       	adc	r23, r23
 732:	9a 95       	dec	r25
 734:	e2 f7       	brpl	.-8      	; 0x72e <DIO_WritePin+0x40>
 736:	cb 01       	movw	r24, r22
 738:	84 2b       	or	r24, r20
 73a:	3a c0       	rjmp	.+116    	; 0x7b0 <DIO_WritePin+0xc2>
 73c:	45 b3       	in	r20, 0x15	; 21
 73e:	21 e0       	ldi	r18, 0x01	; 1
 740:	30 e0       	ldi	r19, 0x00	; 0
 742:	b9 01       	movw	r22, r18
 744:	02 c0       	rjmp	.+4      	; 0x74a <DIO_WritePin+0x5c>
 746:	66 0f       	add	r22, r22
 748:	77 1f       	adc	r23, r23
 74a:	9a 95       	dec	r25
 74c:	e2 f7       	brpl	.-8      	; 0x746 <DIO_WritePin+0x58>
 74e:	cb 01       	movw	r24, r22
 750:	84 2b       	or	r24, r20
 752:	3c c0       	rjmp	.+120    	; 0x7cc <DIO_WritePin+0xde>
 754:	42 b3       	in	r20, 0x12	; 18
 756:	21 e0       	ldi	r18, 0x01	; 1
 758:	30 e0       	ldi	r19, 0x00	; 0
 75a:	b9 01       	movw	r22, r18
 75c:	02 c0       	rjmp	.+4      	; 0x762 <DIO_WritePin+0x74>
 75e:	66 0f       	add	r22, r22
 760:	77 1f       	adc	r23, r23
 762:	9a 95       	dec	r25
 764:	e2 f7       	brpl	.-8      	; 0x75e <DIO_WritePin+0x70>
 766:	cb 01       	movw	r24, r22
 768:	84 2b       	or	r24, r20
 76a:	3e c0       	rjmp	.+124    	; 0x7e8 <DIO_WritePin+0xfa>
 76c:	81 30       	cpi	r24, 0x01	; 1
 76e:	a1 f0       	breq	.+40     	; 0x798 <DIO_WritePin+0xaa>
 770:	28 f0       	brcs	.+10     	; 0x77c <DIO_WritePin+0x8e>
 772:	82 30       	cpi	r24, 0x02	; 2
 774:	f9 f0       	breq	.+62     	; 0x7b4 <DIO_WritePin+0xc6>
 776:	83 30       	cpi	r24, 0x03	; 3
 778:	59 f1       	breq	.+86     	; 0x7d0 <DIO_WritePin+0xe2>
 77a:	08 95       	ret
 77c:	4b b3       	in	r20, 0x1b	; 27
 77e:	21 e0       	ldi	r18, 0x01	; 1
 780:	30 e0       	ldi	r19, 0x00	; 0
 782:	b9 01       	movw	r22, r18
 784:	02 c0       	rjmp	.+4      	; 0x78a <DIO_WritePin+0x9c>
 786:	66 0f       	add	r22, r22
 788:	77 1f       	adc	r23, r23
 78a:	9a 95       	dec	r25
 78c:	e2 f7       	brpl	.-8      	; 0x786 <DIO_WritePin+0x98>
 78e:	cb 01       	movw	r24, r22
 790:	80 95       	com	r24
 792:	84 23       	and	r24, r20
 794:	8b bb       	out	0x1b, r24	; 27
 796:	08 95       	ret
 798:	48 b3       	in	r20, 0x18	; 24
 79a:	21 e0       	ldi	r18, 0x01	; 1
 79c:	30 e0       	ldi	r19, 0x00	; 0
 79e:	b9 01       	movw	r22, r18
 7a0:	02 c0       	rjmp	.+4      	; 0x7a6 <DIO_WritePin+0xb8>
 7a2:	66 0f       	add	r22, r22
 7a4:	77 1f       	adc	r23, r23
 7a6:	9a 95       	dec	r25
 7a8:	e2 f7       	brpl	.-8      	; 0x7a2 <DIO_WritePin+0xb4>
 7aa:	cb 01       	movw	r24, r22
 7ac:	80 95       	com	r24
 7ae:	84 23       	and	r24, r20
 7b0:	88 bb       	out	0x18, r24	; 24
 7b2:	08 95       	ret
 7b4:	45 b3       	in	r20, 0x15	; 21
 7b6:	21 e0       	ldi	r18, 0x01	; 1
 7b8:	30 e0       	ldi	r19, 0x00	; 0
 7ba:	b9 01       	movw	r22, r18
 7bc:	02 c0       	rjmp	.+4      	; 0x7c2 <DIO_WritePin+0xd4>
 7be:	66 0f       	add	r22, r22
 7c0:	77 1f       	adc	r23, r23
 7c2:	9a 95       	dec	r25
 7c4:	e2 f7       	brpl	.-8      	; 0x7be <DIO_WritePin+0xd0>
 7c6:	cb 01       	movw	r24, r22
 7c8:	80 95       	com	r24
 7ca:	84 23       	and	r24, r20
 7cc:	85 bb       	out	0x15, r24	; 21
 7ce:	08 95       	ret
 7d0:	42 b3       	in	r20, 0x12	; 18
 7d2:	21 e0       	ldi	r18, 0x01	; 1
 7d4:	30 e0       	ldi	r19, 0x00	; 0
 7d6:	b9 01       	movw	r22, r18
 7d8:	02 c0       	rjmp	.+4      	; 0x7de <DIO_WritePin+0xf0>
 7da:	66 0f       	add	r22, r22
 7dc:	77 1f       	adc	r23, r23
 7de:	9a 95       	dec	r25
 7e0:	e2 f7       	brpl	.-8      	; 0x7da <DIO_WritePin+0xec>
 7e2:	cb 01       	movw	r24, r22
 7e4:	80 95       	com	r24
 7e6:	84 23       	and	r24, r20
 7e8:	82 bb       	out	0x12, r24	; 18
 7ea:	08 95       	ret

000007ec <DIO_WritePort>:
 7ec:	81 30       	cpi	r24, 0x01	; 1
 7ee:	41 f0       	breq	.+16     	; 0x800 <__DATA_REGION_LENGTH__>
 7f0:	28 f0       	brcs	.+10     	; 0x7fc <DIO_WritePort+0x10>
 7f2:	82 30       	cpi	r24, 0x02	; 2
 7f4:	39 f0       	breq	.+14     	; 0x804 <__DATA_REGION_LENGTH__+0x4>
 7f6:	83 30       	cpi	r24, 0x03	; 3
 7f8:	39 f0       	breq	.+14     	; 0x808 <__DATA_REGION_LENGTH__+0x8>
 7fa:	08 95       	ret
 7fc:	6b bb       	out	0x1b, r22	; 27
 7fe:	08 95       	ret
 800:	68 bb       	out	0x18, r22	; 24
 802:	08 95       	ret
 804:	65 bb       	out	0x15, r22	; 21
 806:	08 95       	ret
 808:	62 bb       	out	0x12, r22	; 18
 80a:	08 95       	ret

0000080c <EXI_Enable>:
 80c:	81 30       	cpi	r24, 0x01	; 1
 80e:	39 f0       	breq	.+14     	; 0x81e <EXI_Enable+0x12>
 810:	18 f0       	brcs	.+6      	; 0x818 <EXI_Enable+0xc>
 812:	82 30       	cpi	r24, 0x02	; 2
 814:	39 f0       	breq	.+14     	; 0x824 <EXI_Enable+0x18>
 816:	08 95       	ret
 818:	8b b7       	in	r24, 0x3b	; 59
 81a:	80 64       	ori	r24, 0x40	; 64
 81c:	05 c0       	rjmp	.+10     	; 0x828 <EXI_Enable+0x1c>
 81e:	8b b7       	in	r24, 0x3b	; 59
 820:	80 68       	ori	r24, 0x80	; 128
 822:	02 c0       	rjmp	.+4      	; 0x828 <EXI_Enable+0x1c>
 824:	8b b7       	in	r24, 0x3b	; 59
 826:	80 62       	ori	r24, 0x20	; 32
 828:	8b bf       	out	0x3b, r24	; 59
 82a:	08 95       	ret

0000082c <EXI_TriggerEdge>:
 82c:	81 30       	cpi	r24, 0x01	; 1
 82e:	f1 f0       	breq	.+60     	; 0x86c <__stack+0xd>
 830:	18 f0       	brcs	.+6      	; 0x838 <EXI_TriggerEdge+0xc>
 832:	82 30       	cpi	r24, 0x02	; 2
 834:	b1 f1       	breq	.+108    	; 0x8a2 <__stack+0x43>
 836:	08 95       	ret
 838:	61 30       	cpi	r22, 0x01	; 1
 83a:	49 f0       	breq	.+18     	; 0x84e <EXI_TriggerEdge+0x22>
 83c:	28 f0       	brcs	.+10     	; 0x848 <EXI_TriggerEdge+0x1c>
 83e:	62 30       	cpi	r22, 0x02	; 2
 840:	61 f0       	breq	.+24     	; 0x85a <EXI_TriggerEdge+0x2e>
 842:	63 30       	cpi	r22, 0x03	; 3
 844:	69 f0       	breq	.+26     	; 0x860 <__stack+0x1>
 846:	08 95       	ret
 848:	85 b7       	in	r24, 0x35	; 53
 84a:	8e 7f       	andi	r24, 0xFE	; 254
 84c:	02 c0       	rjmp	.+4      	; 0x852 <EXI_TriggerEdge+0x26>
 84e:	85 b7       	in	r24, 0x35	; 53
 850:	81 60       	ori	r24, 0x01	; 1
 852:	85 bf       	out	0x35, r24	; 53
 854:	85 b7       	in	r24, 0x35	; 53
 856:	8d 7f       	andi	r24, 0xFD	; 253
 858:	22 c0       	rjmp	.+68     	; 0x89e <__stack+0x3f>
 85a:	85 b7       	in	r24, 0x35	; 53
 85c:	8e 7f       	andi	r24, 0xFE	; 254
 85e:	02 c0       	rjmp	.+4      	; 0x864 <__stack+0x5>
 860:	85 b7       	in	r24, 0x35	; 53
 862:	81 60       	ori	r24, 0x01	; 1
 864:	85 bf       	out	0x35, r24	; 53
 866:	85 b7       	in	r24, 0x35	; 53
 868:	82 60       	ori	r24, 0x02	; 2
 86a:	19 c0       	rjmp	.+50     	; 0x89e <__stack+0x3f>
 86c:	61 30       	cpi	r22, 0x01	; 1
 86e:	49 f0       	breq	.+18     	; 0x882 <__stack+0x23>
 870:	28 f0       	brcs	.+10     	; 0x87c <__stack+0x1d>
 872:	62 30       	cpi	r22, 0x02	; 2
 874:	61 f0       	breq	.+24     	; 0x88e <__stack+0x2f>
 876:	63 30       	cpi	r22, 0x03	; 3
 878:	69 f0       	breq	.+26     	; 0x894 <__stack+0x35>
 87a:	08 95       	ret
 87c:	85 b7       	in	r24, 0x35	; 53
 87e:	8b 7f       	andi	r24, 0xFB	; 251
 880:	02 c0       	rjmp	.+4      	; 0x886 <__stack+0x27>
 882:	85 b7       	in	r24, 0x35	; 53
 884:	84 60       	ori	r24, 0x04	; 4
 886:	85 bf       	out	0x35, r24	; 53
 888:	85 b7       	in	r24, 0x35	; 53
 88a:	87 7f       	andi	r24, 0xF7	; 247
 88c:	08 c0       	rjmp	.+16     	; 0x89e <__stack+0x3f>
 88e:	85 b7       	in	r24, 0x35	; 53
 890:	8b 7f       	andi	r24, 0xFB	; 251
 892:	02 c0       	rjmp	.+4      	; 0x898 <__stack+0x39>
 894:	85 b7       	in	r24, 0x35	; 53
 896:	84 60       	ori	r24, 0x04	; 4
 898:	85 bf       	out	0x35, r24	; 53
 89a:	85 b7       	in	r24, 0x35	; 53
 89c:	88 60       	ori	r24, 0x08	; 8
 89e:	85 bf       	out	0x35, r24	; 53
 8a0:	08 95       	ret
 8a2:	62 30       	cpi	r22, 0x02	; 2
 8a4:	29 f0       	breq	.+10     	; 0x8b0 <__stack+0x51>
 8a6:	63 30       	cpi	r22, 0x03	; 3
 8a8:	19 f4       	brne	.+6      	; 0x8b0 <__stack+0x51>
 8aa:	84 b7       	in	r24, 0x34	; 52
 8ac:	80 64       	ori	r24, 0x40	; 64
 8ae:	02 c0       	rjmp	.+4      	; 0x8b4 <__stack+0x55>
 8b0:	84 b7       	in	r24, 0x34	; 52
 8b2:	8f 7b       	andi	r24, 0xBF	; 191
 8b4:	84 bf       	out	0x34, r24	; 52
 8b6:	08 95       	ret

000008b8 <EXI_Init>:
 8b8:	62 e0       	ldi	r22, 0x02	; 2
 8ba:	80 e0       	ldi	r24, 0x00	; 0
 8bc:	0e 94 16 04 	call	0x82c	; 0x82c <EXI_TriggerEdge>
 8c0:	62 e0       	ldi	r22, 0x02	; 2
 8c2:	81 e0       	ldi	r24, 0x01	; 1
 8c4:	0e 94 16 04 	call	0x82c	; 0x82c <EXI_TriggerEdge>
 8c8:	62 e0       	ldi	r22, 0x02	; 2
 8ca:	82 e0       	ldi	r24, 0x02	; 2
 8cc:	0c 94 16 04 	jmp	0x82c	; 0x82c <EXI_TriggerEdge>

000008d0 <EXI_SetCallBack>:
 8d0:	81 30       	cpi	r24, 0x01	; 1
 8d2:	49 f0       	breq	.+18     	; 0x8e6 <EXI_SetCallBack+0x16>
 8d4:	18 f0       	brcs	.+6      	; 0x8dc <EXI_SetCallBack+0xc>
 8d6:	82 30       	cpi	r24, 0x02	; 2
 8d8:	59 f0       	breq	.+22     	; 0x8f0 <EXI_SetCallBack+0x20>
 8da:	08 95       	ret
 8dc:	70 93 a6 00 	sts	0x00A6, r23	; 0x8000a6 <INT0_Fptr+0x1>
 8e0:	60 93 a5 00 	sts	0x00A5, r22	; 0x8000a5 <INT0_Fptr>
 8e4:	08 95       	ret
 8e6:	70 93 a4 00 	sts	0x00A4, r23	; 0x8000a4 <INT1_Fptr+0x1>
 8ea:	60 93 a3 00 	sts	0x00A3, r22	; 0x8000a3 <INT1_Fptr>
 8ee:	08 95       	ret
 8f0:	70 93 a2 00 	sts	0x00A2, r23	; 0x8000a2 <INT2_Fptr+0x1>
 8f4:	60 93 a1 00 	sts	0x00A1, r22	; 0x8000a1 <INT2_Fptr>
 8f8:	08 95       	ret

000008fa <__vector_1>:
 8fa:	1f 92       	push	r1
 8fc:	0f 92       	push	r0
 8fe:	0f b6       	in	r0, 0x3f	; 63
 900:	0f 92       	push	r0
 902:	11 24       	eor	r1, r1
 904:	2f 93       	push	r18
 906:	3f 93       	push	r19
 908:	4f 93       	push	r20
 90a:	5f 93       	push	r21
 90c:	6f 93       	push	r22
 90e:	7f 93       	push	r23
 910:	8f 93       	push	r24
 912:	9f 93       	push	r25
 914:	af 93       	push	r26
 916:	bf 93       	push	r27
 918:	ef 93       	push	r30
 91a:	ff 93       	push	r31
 91c:	e0 91 a5 00 	lds	r30, 0x00A5	; 0x8000a5 <INT0_Fptr>
 920:	f0 91 a6 00 	lds	r31, 0x00A6	; 0x8000a6 <INT0_Fptr+0x1>
 924:	30 97       	sbiw	r30, 0x00	; 0
 926:	09 f0       	breq	.+2      	; 0x92a <__vector_1+0x30>
 928:	09 95       	icall
 92a:	ff 91       	pop	r31
 92c:	ef 91       	pop	r30
 92e:	bf 91       	pop	r27
 930:	af 91       	pop	r26
 932:	9f 91       	pop	r25
 934:	8f 91       	pop	r24
 936:	7f 91       	pop	r23
 938:	6f 91       	pop	r22
 93a:	5f 91       	pop	r21
 93c:	4f 91       	pop	r20
 93e:	3f 91       	pop	r19
 940:	2f 91       	pop	r18
 942:	0f 90       	pop	r0
 944:	0f be       	out	0x3f, r0	; 63
 946:	0f 90       	pop	r0
 948:	1f 90       	pop	r1
 94a:	18 95       	reti

0000094c <__vector_2>:
 94c:	78 94       	sei
 94e:	1f 92       	push	r1
 950:	0f 92       	push	r0
 952:	0f b6       	in	r0, 0x3f	; 63
 954:	0f 92       	push	r0
 956:	11 24       	eor	r1, r1
 958:	2f 93       	push	r18
 95a:	3f 93       	push	r19
 95c:	4f 93       	push	r20
 95e:	5f 93       	push	r21
 960:	6f 93       	push	r22
 962:	7f 93       	push	r23
 964:	8f 93       	push	r24
 966:	9f 93       	push	r25
 968:	af 93       	push	r26
 96a:	bf 93       	push	r27
 96c:	ef 93       	push	r30
 96e:	ff 93       	push	r31
 970:	e0 91 a3 00 	lds	r30, 0x00A3	; 0x8000a3 <INT1_Fptr>
 974:	f0 91 a4 00 	lds	r31, 0x00A4	; 0x8000a4 <INT1_Fptr+0x1>
 978:	30 97       	sbiw	r30, 0x00	; 0
 97a:	09 f0       	breq	.+2      	; 0x97e <__vector_2+0x32>
 97c:	09 95       	icall
 97e:	ff 91       	pop	r31
 980:	ef 91       	pop	r30
 982:	bf 91       	pop	r27
 984:	af 91       	pop	r26
 986:	9f 91       	pop	r25
 988:	8f 91       	pop	r24
 98a:	7f 91       	pop	r23
 98c:	6f 91       	pop	r22
 98e:	5f 91       	pop	r21
 990:	4f 91       	pop	r20
 992:	3f 91       	pop	r19
 994:	2f 91       	pop	r18
 996:	0f 90       	pop	r0
 998:	0f be       	out	0x3f, r0	; 63
 99a:	0f 90       	pop	r0
 99c:	1f 90       	pop	r1
 99e:	18 95       	reti

000009a0 <__vector_3>:
 9a0:	1f 92       	push	r1
 9a2:	0f 92       	push	r0
 9a4:	0f b6       	in	r0, 0x3f	; 63
 9a6:	0f 92       	push	r0
 9a8:	11 24       	eor	r1, r1
 9aa:	2f 93       	push	r18
 9ac:	3f 93       	push	r19
 9ae:	4f 93       	push	r20
 9b0:	5f 93       	push	r21
 9b2:	6f 93       	push	r22
 9b4:	7f 93       	push	r23
 9b6:	8f 93       	push	r24
 9b8:	9f 93       	push	r25
 9ba:	af 93       	push	r26
 9bc:	bf 93       	push	r27
 9be:	ef 93       	push	r30
 9c0:	ff 93       	push	r31
 9c2:	e0 91 a1 00 	lds	r30, 0x00A1	; 0x8000a1 <INT2_Fptr>
 9c6:	f0 91 a2 00 	lds	r31, 0x00A2	; 0x8000a2 <INT2_Fptr+0x1>
 9ca:	30 97       	sbiw	r30, 0x00	; 0
 9cc:	09 f0       	breq	.+2      	; 0x9d0 <__vector_3+0x30>
 9ce:	09 95       	icall
 9d0:	ff 91       	pop	r31
 9d2:	ef 91       	pop	r30
 9d4:	bf 91       	pop	r27
 9d6:	af 91       	pop	r26
 9d8:	9f 91       	pop	r25
 9da:	8f 91       	pop	r24
 9dc:	7f 91       	pop	r23
 9de:	6f 91       	pop	r22
 9e0:	5f 91       	pop	r21
 9e2:	4f 91       	pop	r20
 9e4:	3f 91       	pop	r19
 9e6:	2f 91       	pop	r18
 9e8:	0f 90       	pop	r0
 9ea:	0f be       	out	0x3f, r0	; 63
 9ec:	0f 90       	pop	r0
 9ee:	1f 90       	pop	r1
 9f0:	18 95       	reti

000009f2 <__udivmodhi4>:
 9f2:	aa 1b       	sub	r26, r26
 9f4:	bb 1b       	sub	r27, r27
 9f6:	51 e1       	ldi	r21, 0x11	; 17
 9f8:	07 c0       	rjmp	.+14     	; 0xa08 <__udivmodhi4_ep>

000009fa <__udivmodhi4_loop>:
 9fa:	aa 1f       	adc	r26, r26
 9fc:	bb 1f       	adc	r27, r27
 9fe:	a6 17       	cp	r26, r22
 a00:	b7 07       	cpc	r27, r23
 a02:	10 f0       	brcs	.+4      	; 0xa08 <__udivmodhi4_ep>
 a04:	a6 1b       	sub	r26, r22
 a06:	b7 0b       	sbc	r27, r23

00000a08 <__udivmodhi4_ep>:
 a08:	88 1f       	adc	r24, r24
 a0a:	99 1f       	adc	r25, r25
 a0c:	5a 95       	dec	r21
 a0e:	a9 f7       	brne	.-22     	; 0x9fa <__udivmodhi4_loop>
 a10:	80 95       	com	r24
 a12:	90 95       	com	r25
 a14:	bc 01       	movw	r22, r24
 a16:	cd 01       	movw	r24, r26
 a18:	08 95       	ret

00000a1a <__tablejump2__>:
 a1a:	ee 0f       	add	r30, r30
 a1c:	ff 1f       	adc	r31, r31
 a1e:	05 90       	lpm	r0, Z+
 a20:	f4 91       	lpm	r31, Z
 a22:	e0 2d       	mov	r30, r0
 a24:	09 94       	ijmp

00000a26 <__umulhisi3>:
 a26:	a2 9f       	mul	r26, r18
 a28:	b0 01       	movw	r22, r0
 a2a:	b3 9f       	mul	r27, r19
 a2c:	c0 01       	movw	r24, r0
 a2e:	a3 9f       	mul	r26, r19
 a30:	70 0d       	add	r23, r0
 a32:	81 1d       	adc	r24, r1
 a34:	11 24       	eor	r1, r1
 a36:	91 1d       	adc	r25, r1
 a38:	b2 9f       	mul	r27, r18
 a3a:	70 0d       	add	r23, r0
 a3c:	81 1d       	adc	r24, r1
 a3e:	11 24       	eor	r1, r1
 a40:	91 1d       	adc	r25, r1
 a42:	08 95       	ret

00000a44 <_exit>:
 a44:	f8 94       	cli

00000a46 <__stop_program>:
 a46:	ff cf       	rjmp	.-2      	; 0xa46 <__stop_program>
